GAS LISTING /tmp/ccbirNJ0.s 			page 1


   1              		.file	"_sem.cpp"
   2              		.option pic
   3              		.option norelax
   4              		.text
   5              	.Ltext0:
   6              		.align	2
   7              		.globl	_ZN4_sem9createSemEi
   9              	_ZN4_sem9createSemEi:
  10              	.LFB40:
  11              		.file 1 "src/_sem.cpp"
   1:src/_sem.cpp  **** //
   2:src/_sem.cpp  **** // Created by os on 1/28/23.
   3:src/_sem.cpp  **** //
   4:src/_sem.cpp  **** 
   5:src/_sem.cpp  **** #include "../h/_sem.hpp"
   6:src/_sem.cpp  **** 
   7:src/_sem.cpp  **** _sem* _sem::createSem(int val)
   8:src/_sem.cpp  **** {
  12              		.loc 1 8 1
  13              		.cfi_startproc
  14              	.LVL0:
  15 0000 130101FE 		addi	sp,sp,-32
  16              		.cfi_def_cfa_offset 32
  17 0004 233C1100 		sd	ra,24(sp)
  18 0008 23388100 		sd	s0,16(sp)
  19 000c 23349100 		sd	s1,8(sp)
  20              		.cfi_offset 1, -8
  21              		.cfi_offset 8, -16
  22              		.cfi_offset 9, -24
  23 0010 13040102 		addi	s0,sp,32
  24              		.cfi_def_cfa 8, 0
  25 0014 93040500 		mv	s1,a0
   9:src/_sem.cpp  ****     return new _sem(val);
  26              		.loc 1 9 5
  27              		.loc 1 9 24 is_stmt 0
  28 0018 13058001 		li	a0,24
  29              	.LVL1:
  30 001c 97000000 		call	_Znwm@plt
  30      E7800000 
  31              	.LVL2:
  32              	.LBB26:
  33              	.LBB27:
  34              	.LBB28:
  35              	.LBB29:
  36              		.file 2 "src/../h/list.hpp"
   1:src/../h/list.hpp **** //
   2:src/../h/list.hpp **** // Created by marko on 20.4.22..
   3:src/../h/list.hpp **** //
   4:src/../h/list.hpp **** 
   5:src/../h/list.hpp **** #ifndef OS1_VEZBE07_RISCV_CONTEXT_SWITCH_1_SYNCHRONOUS_LIST_HPP
   6:src/../h/list.hpp **** #define OS1_VEZBE07_RISCV_CONTEXT_SWITCH_1_SYNCHRONOUS_LIST_HPP
   7:src/../h/list.hpp **** 
   8:src/../h/list.hpp **** template<typename T>
   9:src/../h/list.hpp **** class List
  10:src/../h/list.hpp **** {
  11:src/../h/list.hpp **** private:
  12:src/../h/list.hpp ****     struct Elem
GAS LISTING /tmp/ccbirNJ0.s 			page 2


  13:src/../h/list.hpp ****     {
  14:src/../h/list.hpp ****         T *data;
  15:src/../h/list.hpp ****         Elem *next;
  16:src/../h/list.hpp **** 
  17:src/../h/list.hpp ****         Elem(T *data, Elem *next) : data(data), next(next) {}
  18:src/../h/list.hpp ****     };
  19:src/../h/list.hpp **** 
  20:src/../h/list.hpp ****     Elem *head, *tail;
  21:src/../h/list.hpp **** 
  22:src/../h/list.hpp **** public:
  23:src/../h/list.hpp ****     List() : head(0), tail(0) {}
  37              		.loc 2 23 29
  38 0024 23300500 		sd	zero,0(a0)
  39 0028 23340500 		sd	zero,8(a0)
  40              	.LVL3:
  41              	.LBE29:
  42              	.LBE28:
  43              		.file 3 "src/../h/_sem.hpp"
   1:src/../h/_sem.hpp **** //
   2:src/../h/_sem.hpp **** // Created by os on 1/28/23.
   3:src/../h/_sem.hpp **** //
   4:src/../h/_sem.hpp **** 
   5:src/../h/_sem.hpp **** #ifndef PROJECT_BASE__SEM_HPP
   6:src/../h/_sem.hpp **** #define PROJECT_BASE__SEM_HPP
   7:src/../h/_sem.hpp **** 
   8:src/../h/_sem.hpp **** 
   9:src/../h/_sem.hpp **** #include "list.hpp"
  10:src/../h/_sem.hpp **** #include "tcb.hpp"
  11:src/../h/_sem.hpp **** 
  12:src/../h/_sem.hpp **** class _sem {
  13:src/../h/_sem.hpp **** public:
  14:src/../h/_sem.hpp **** 
  15:src/../h/_sem.hpp ****     ~_sem() {}
  16:src/../h/_sem.hpp **** 
  17:src/../h/_sem.hpp ****     static _sem* createSem(int val);
  18:src/../h/_sem.hpp **** 
  19:src/../h/_sem.hpp ****     int wait();
  20:src/../h/_sem.hpp **** 
  21:src/../h/_sem.hpp ****     int signal();
  22:src/../h/_sem.hpp **** 
  23:src/../h/_sem.hpp **** private:
  24:src/../h/_sem.hpp **** 
  25:src/../h/_sem.hpp ****     _sem(int val): val(val){}
  44              		.loc 3 25 27
  45 002c 23289500 		sw	s1,16(a0)
  46              	.LVL4:
  47              	.LBE27:
  48              	.LBE26:
  10:src/_sem.cpp  **** }
  49              		.loc 1 10 1
  50 0030 83308101 		ld	ra,24(sp)
  51              		.cfi_restore 1
  52 0034 03340101 		ld	s0,16(sp)
  53              		.cfi_restore 8
  54              		.cfi_def_cfa 2, 32
  55 0038 83348100 		ld	s1,8(sp)
  56              		.cfi_restore 9
GAS LISTING /tmp/ccbirNJ0.s 			page 3


  57 003c 13010102 		addi	sp,sp,32
  58              		.cfi_def_cfa_offset 0
  59 0040 67800000 		jr	ra
  60              		.cfi_endproc
  61              	.LFE40:
  63              		.align	2
  64              		.globl	_ZN4_sem4waitEv
  66              	_ZN4_sem4waitEv:
  67              	.LFB41:
  11:src/_sem.cpp  **** 
  12:src/_sem.cpp  **** int _sem::wait()
  13:src/_sem.cpp  **** {
  68              		.loc 1 13 1 is_stmt 1
  69              		.cfi_startproc
  70              	.LVL5:
  14:src/_sem.cpp  ****     val--;
  71              		.loc 1 14 5
  72 0044 83270501 		lw	a5,16(a0)
  73              		.loc 1 14 8 is_stmt 0
  74 0048 9B87F7FF 		addiw	a5,a5,-1
  75 004c 2328F500 		sw	a5,16(a0)
  15:src/_sem.cpp  ****     if (val < 0) {
  76              		.loc 1 15 5 is_stmt 1
  77              	.LBB30:
  78 0050 13970702 		slli	a4,a5,32
  79 0054 63460700 		bltz	a4,.L11
  80              	.LBE30:
  16:src/_sem.cpp  ****         TCB* old = TCB::running;
  17:src/_sem.cpp  ****         old->status = TCB::BLOCKED;
  18:src/_sem.cpp  ****         queue.addLast(old);
  19:src/_sem.cpp  ****         TCB::dispatch();
  20:src/_sem.cpp  ****         /*TCB::running = Scheduler::get();
  21:src/_sem.cpp  ****         TCB::running->status = TCB::RUNNING;
  22:src/_sem.cpp  ****         TCB::contextSwitch(&old->context, &TCB::running->context);*/
  23:src/_sem.cpp  ****     }
  24:src/_sem.cpp  ****     return 0;
  81              		.loc 1 24 5
  25:src/_sem.cpp  **** }
  82              		.loc 1 25 1 is_stmt 0
  83 0058 13050000 		li	a0,0
  84              	.LVL6:
  85 005c 67800000 		ret
  86              	.LVL7:
  87              	.L11:
  13:src/_sem.cpp  ****     val--;
  88              		.loc 1 13 1
  89 0060 130101FE 		addi	sp,sp,-32
  90              		.cfi_def_cfa_offset 32
  91 0064 233C1100 		sd	ra,24(sp)
  92 0068 23388100 		sd	s0,16(sp)
  93 006c 23349100 		sd	s1,8(sp)
  94 0070 23302101 		sd	s2,0(sp)
  95              		.cfi_offset 1, -8
  96              		.cfi_offset 8, -16
  97              		.cfi_offset 9, -24
  98              		.cfi_offset 18, -32
  99 0074 13040102 		addi	s0,sp,32
GAS LISTING /tmp/ccbirNJ0.s 			page 4


 100              		.cfi_def_cfa 8, 0
 101 0078 93040500 		mv	s1,a0
 102              	.LBB39:
 103              	.LBB31:
  16:src/_sem.cpp  ****         TCB* old = TCB::running;
 104              		.loc 1 16 9 is_stmt 1
  16:src/_sem.cpp  ****         TCB* old = TCB::running;
 105              		.loc 1 16 14 is_stmt 0
 106 007c 97070000 		la	a5,_ZN3TCB7runningE
 106      83B70700 
 107 0084 03B90700 		ld	s2,0(a5)
 108              	.LVL8:
  17:src/_sem.cpp  ****         queue.addLast(old);
 109              		.loc 1 17 9 is_stmt 1
  17:src/_sem.cpp  ****         queue.addLast(old);
 110              		.loc 1 17 21 is_stmt 0
 111 0088 93074000 		li	a5,4
 112 008c 2328F902 		sw	a5,48(s2)
  18:src/_sem.cpp  ****         TCB::dispatch();
 113              		.loc 1 18 9 is_stmt 1
 114              	.LVL9:
 115              	.LBB32:
 116              	.LBB33:
  24:src/../h/list.hpp **** 
  25:src/../h/list.hpp ****     List(const List<T> &) = delete;
  26:src/../h/list.hpp **** 
  27:src/../h/list.hpp ****     List<T> &operator=(const List<T> &) = delete;
  28:src/../h/list.hpp **** 
  29:src/../h/list.hpp ****     void addFirst(T *data)
  30:src/../h/list.hpp ****     {
  31:src/../h/list.hpp ****         Elem *elem = new Elem(data, head);
  32:src/../h/list.hpp ****         head = elem;
  33:src/../h/list.hpp ****         if (!tail) { tail = head; }
  34:src/../h/list.hpp ****     }
  35:src/../h/list.hpp **** 
  36:src/../h/list.hpp ****     void addLast(T *data)
  37:src/../h/list.hpp ****     {
  38:src/../h/list.hpp ****         Elem *elem = new Elem(data, 0);
 117              		.loc 2 38 22 is_stmt 0
 118 0090 13050001 		li	a0,16
 119              	.LVL10:
 120 0094 97000000 		call	_Znwm@plt
 120      E7800000 
 121              	.LVL11:
 122              	.LBB34:
 123              	.LBB35:
  17:src/../h/list.hpp ****     };
 124              		.loc 2 17 58
 125 009c 23302501 		sd	s2,0(a0)
 126 00a0 23340500 		sd	zero,8(a0)
 127              	.LVL12:
 128              	.LBE35:
 129              	.LBE34:
  39:src/../h/list.hpp ****         if (tail)
 130              		.loc 2 39 13
 131 00a4 83B78400 		ld	a5,8(s1)
 132              		.loc 2 39 9
GAS LISTING /tmp/ccbirNJ0.s 			page 5


 133 00a8 63880702 		beqz	a5,.L5
  40:src/../h/list.hpp ****         {
  41:src/../h/list.hpp ****             tail->next = elem;
 134              		.loc 2 41 13
 135 00ac 23B4A700 		sd	a0,8(a5)
  42:src/../h/list.hpp ****             tail = elem;
 136              		.loc 2 42 13
 137 00b0 23B4A400 		sd	a0,8(s1)
 138              	.L6:
 139              	.LVL13:
 140              	.LBE33:
 141              	.LBE32:
  19:src/_sem.cpp  ****         /*TCB::running = Scheduler::get();
 142              		.loc 1 19 9 is_stmt 1
  19:src/_sem.cpp  ****         /*TCB::running = Scheduler::get();
 143              		.loc 1 19 22 is_stmt 0
 144 00b4 97000000 		call	_ZN3TCB8dispatchEv@plt
 144      E7800000 
 145              	.LVL14:
 146              	.LBE31:
 147              	.LBE39:
  24:src/_sem.cpp  **** }
 148              		.loc 1 24 5 is_stmt 1
 149              		.loc 1 25 1 is_stmt 0
 150 00bc 13050000 		li	a0,0
 151 00c0 83308101 		ld	ra,24(sp)
 152              		.cfi_remember_state
 153              		.cfi_restore 1
 154 00c4 03340101 		ld	s0,16(sp)
 155              		.cfi_restore 8
 156              		.cfi_def_cfa 2, 32
 157 00c8 83348100 		ld	s1,8(sp)
 158              		.cfi_restore 9
 159              	.LVL15:
 160 00cc 03390100 		ld	s2,0(sp)
 161              		.cfi_restore 18
 162              	.LVL16:
 163 00d0 13010102 		addi	sp,sp,32
 164              		.cfi_def_cfa_offset 0
 165 00d4 67800000 		jr	ra
 166              	.LVL17:
 167              	.L5:
 168              		.cfi_restore_state
 169              	.LBB40:
 170              	.LBB38:
 171              	.LBB37:
 172              	.LBB36:
  43:src/../h/list.hpp ****         } else
  44:src/../h/list.hpp ****         {
  45:src/../h/list.hpp ****             head = tail = elem;
 173              		.loc 2 45 13
 174 00d8 23B4A400 		sd	a0,8(s1)
 175 00dc 23B0A400 		sd	a0,0(s1)
 176 00e0 6FF05FFD 		j	.L6
 177              	.LBE36:
 178              	.LBE37:
 179              	.LBE38:
GAS LISTING /tmp/ccbirNJ0.s 			page 6


 180              	.LBE40:
 181              		.cfi_endproc
 182              	.LFE41:
 184              		.align	2
 185              		.globl	_ZN4_sem6signalEv
 187              	_ZN4_sem6signalEv:
 188              	.LFB42:
  26:src/_sem.cpp  **** 
  27:src/_sem.cpp  **** int _sem::signal()
  28:src/_sem.cpp  **** {
 189              		.loc 1 28 1 is_stmt 1
 190              		.cfi_startproc
 191              	.LVL18:
  29:src/_sem.cpp  ****     val++;
 192              		.loc 1 29 5
 193 00e4 03270501 		lw	a4,16(a0)
 194              		.loc 1 29 8 is_stmt 0
 195 00e8 1B071700 		addiw	a4,a4,1
 196 00ec 9B060700 		sext.w	a3,a4
 197 00f0 2328E500 		sw	a4,16(a0)
  30:src/_sem.cpp  ****     if (val <= 0) {
 198              		.loc 1 30 5 is_stmt 1
 199              	.LBB41:
 200 00f4 6356D000 		blez	a3,.L21
 201              	.LBE41:
  31:src/_sem.cpp  ****         TCB* curr = queue.removeFirst();
  32:src/_sem.cpp  ****         curr->status = TCB::READY;
  33:src/_sem.cpp  ****         Scheduler::put(curr);
  34:src/_sem.cpp  ****     }
  35:src/_sem.cpp  ****     return 0;
 202              		.loc 1 35 5
  36:src/_sem.cpp  **** }...
 203              		.loc 1 36 1 is_stmt 0
 204 00f8 13050000 		li	a0,0
 205              	.LVL19:
 206 00fc 67800000 		ret
 207              	.LVL20:
 208              	.L21:
  28:src/_sem.cpp  **** {
 209              		.loc 1 28 1
 210 0100 130101FE 		addi	sp,sp,-32
 211              		.cfi_def_cfa_offset 32
 212 0104 233C1100 		sd	ra,24(sp)
 213 0108 23388100 		sd	s0,16(sp)
 214 010c 23349100 		sd	s1,8(sp)
 215              		.cfi_offset 1, -8
 216              		.cfi_offset 8, -16
 217              		.cfi_offset 9, -24
 218 0110 13040102 		addi	s0,sp,32
 219              		.cfi_def_cfa 8, 0
 220 0114 93070500 		mv	a5,a0
 221              	.LBB48:
 222              	.LBB42:
  31:src/_sem.cpp  ****         TCB* curr = queue.removeFirst();
 223              		.loc 1 31 9 is_stmt 1
 224              	.LVL21:
 225              	.LBB43:
GAS LISTING /tmp/ccbirNJ0.s 			page 7


 226              	.LBB44:
  46:src/../h/list.hpp ****         }
  47:src/../h/list.hpp ****     }
  48:src/../h/list.hpp **** 
  49:src/../h/list.hpp ****     T *removeFirst()
  50:src/../h/list.hpp ****     {
  51:src/../h/list.hpp ****         if (!head) { return 0; }
 227              		.loc 2 51 14 is_stmt 0
 228 0118 03350500 		ld	a0,0(a0)
 229              	.LVL22:
 230              		.loc 2 51 9
 231 011c 63080504 		beqz	a0,.L16
 232              	.LVL23:
  52:src/../h/list.hpp **** 
  53:src/../h/list.hpp ****         Elem *elem = head;
  54:src/../h/list.hpp ****         head = head->next;
 233              		.loc 2 54 22
 234 0120 03378500 		ld	a4,8(a0)
 235              		.loc 2 54 9
 236 0124 23B0E700 		sd	a4,0(a5)
  55:src/../h/list.hpp ****         if (!head) { tail = 0; }
 237              		.loc 2 55 9
 238 0128 630E0702 		beqz	a4,.L22
 239              	.L15:
  56:src/../h/list.hpp **** 
  57:src/../h/list.hpp ****         T *ret = elem->data;
 240              		.loc 2 57 12
 241 012c 83340500 		ld	s1,0(a0)
 242              	.LVL24:
  58:src/../h/list.hpp ****         delete elem;
 243              		.loc 2 58 9
 244 0130 97000000 		call	_ZdlPv@plt
 244      E7800000 
 245              	.LVL25:
 246              	.L14:
 247              	.LBE44:
 248              	.LBE43:
  32:src/_sem.cpp  ****         curr->status = TCB::READY;
 249              		.loc 1 32 9 is_stmt 1
  32:src/_sem.cpp  ****         curr->status = TCB::READY;
 250              		.loc 1 32 22 is_stmt 0
 251 0138 93071000 		li	a5,1
 252 013c 23A8F402 		sw	a5,48(s1)
  33:src/_sem.cpp  ****         Scheduler::put(curr);
 253              		.loc 1 33 9 is_stmt 1
  33:src/_sem.cpp  ****         Scheduler::put(curr);
 254              		.loc 1 33 23 is_stmt 0
 255 0140 13850400 		mv	a0,s1
 256 0144 97000000 		call	_ZN9Scheduler3putEP3TCB@plt
 256      E7800000 
 257              	.LVL26:
 258              	.LBE42:
 259              	.LBE48:
  35:src/_sem.cpp  ****     return 0;
 260              		.loc 1 35 5 is_stmt 1
 261              		.loc 1 36 1 is_stmt 0
 262 014c 13050000 		li	a0,0
GAS LISTING /tmp/ccbirNJ0.s 			page 8


 263 0150 83308101 		ld	ra,24(sp)
 264              		.cfi_remember_state
 265              		.cfi_restore 1
 266 0154 03340101 		ld	s0,16(sp)
 267              		.cfi_restore 8
 268              		.cfi_def_cfa 2, 32
 269 0158 83348100 		ld	s1,8(sp)
 270              		.cfi_restore 9
 271              	.LVL27:
 272 015c 13010102 		addi	sp,sp,32
 273              		.cfi_def_cfa_offset 0
 274 0160 67800000 		jr	ra
 275              	.LVL28:
 276              	.L22:
 277              		.cfi_restore_state
 278              	.LBB49:
 279              	.LBB47:
 280              	.LBB46:
 281              	.LBB45:
  55:src/../h/list.hpp **** 
 282              		.loc 2 55 22
 283 0164 23B40700 		sd	zero,8(a5)
 284 0168 6FF05FFC 		j	.L15
 285              	.LVL29:
 286              	.L16:
  51:src/../h/list.hpp **** 
 287              		.loc 2 51 29
 288 016c 93040500 		mv	s1,a0
 289 0170 6FF09FFC 		j	.L14
 290              	.LBE45:
 291              	.LBE46:
 292              	.LBE47:
 293              	.LBE49:
 294              		.cfi_endproc
 295              	.LFE42:
 297              	.Letext0:
 298              		.file 4 "src/../h/../lib/hw.h"
 299              		.file 5 "src/../h/scheduler.hpp"
 300              		.file 6 "src/../h/tcb.hpp"
GAS LISTING /tmp/ccbirNJ0.s 			page 9


DEFINED SYMBOLS
                            *ABS*:0000000000000000 _sem.cpp
     /tmp/ccbirNJ0.s:9      .text:0000000000000000 _ZN4_sem9createSemEi
     /tmp/ccbirNJ0.s:13     .text:0000000000000000 .L0 
     /tmp/ccbirNJ0.s:15     .text:0000000000000000 .L0 
     /tmp/ccbirNJ0.s:16     .text:0000000000000004 .L0 
     /tmp/ccbirNJ0.s:20     .text:0000000000000010 .L0 
     /tmp/ccbirNJ0.s:21     .text:0000000000000010 .L0 
     /tmp/ccbirNJ0.s:22     .text:0000000000000010 .L0 
     /tmp/ccbirNJ0.s:24     .text:0000000000000014 .L0 
     /tmp/ccbirNJ0.s:27     .text:0000000000000018 .L0 
     /tmp/ccbirNJ0.s:28     .text:0000000000000018 .L0 
     /tmp/ccbirNJ0.s:38     .text:0000000000000024 .L0 
     /tmp/ccbirNJ0.s:45     .text:000000000000002c .L0 
     /tmp/ccbirNJ0.s:50     .text:0000000000000030 .L0 
     /tmp/ccbirNJ0.s:51     .text:0000000000000034 .L0 
     /tmp/ccbirNJ0.s:53     .text:0000000000000038 .L0 
     /tmp/ccbirNJ0.s:54     .text:0000000000000038 .L0 
     /tmp/ccbirNJ0.s:56     .text:000000000000003c .L0 
     /tmp/ccbirNJ0.s:58     .text:0000000000000040 .L0 
     /tmp/ccbirNJ0.s:60     .text:0000000000000044 .L0 
     /tmp/ccbirNJ0.s:66     .text:0000000000000044 _ZN4_sem4waitEv
     /tmp/ccbirNJ0.s:69     .text:0000000000000044 .L0 
     /tmp/ccbirNJ0.s:71     .text:0000000000000044 .L0 
     /tmp/ccbirNJ0.s:72     .text:0000000000000044 .L0 
     /tmp/ccbirNJ0.s:74     .text:0000000000000048 .L0 
     /tmp/ccbirNJ0.s:78     .text:0000000000000050 .L0 
     /tmp/ccbirNJ0.s:82     .text:0000000000000058 .L0 
     /tmp/ccbirNJ0.s:83     .text:0000000000000058 .L0 
     /tmp/ccbirNJ0.s:89     .text:0000000000000060 .L0 
     /tmp/ccbirNJ0.s:90     .text:0000000000000064 .L0 
     /tmp/ccbirNJ0.s:95     .text:0000000000000074 .L0 
     /tmp/ccbirNJ0.s:96     .text:0000000000000074 .L0 
     /tmp/ccbirNJ0.s:97     .text:0000000000000074 .L0 
     /tmp/ccbirNJ0.s:98     .text:0000000000000074 .L0 
     /tmp/ccbirNJ0.s:100    .text:0000000000000078 .L0 
     /tmp/ccbirNJ0.s:105    .text:000000000000007c .L0 
     /tmp/ccbirNJ0.s:106    .text:000000000000007c .L0 
     /tmp/ccbirNJ0.s:110    .text:0000000000000088 .L0 
     /tmp/ccbirNJ0.s:111    .text:0000000000000088 .L0 
     /tmp/ccbirNJ0.s:117    .text:0000000000000090 .L0 
     /tmp/ccbirNJ0.s:118    .text:0000000000000090 .L0 
     /tmp/ccbirNJ0.s:125    .text:000000000000009c .L0 
     /tmp/ccbirNJ0.s:131    .text:00000000000000a4 .L0 
     /tmp/ccbirNJ0.s:133    .text:00000000000000a8 .L0 
     /tmp/ccbirNJ0.s:135    .text:00000000000000ac .L0 
     /tmp/ccbirNJ0.s:137    .text:00000000000000b0 .L0 
     /tmp/ccbirNJ0.s:143    .text:00000000000000b4 .L0 
     /tmp/ccbirNJ0.s:144    .text:00000000000000b4 .L0 
     /tmp/ccbirNJ0.s:149    .text:00000000000000bc .L0 
     /tmp/ccbirNJ0.s:150    .text:00000000000000bc .L0 
     /tmp/ccbirNJ0.s:152    .text:00000000000000c4 .L0 
     /tmp/ccbirNJ0.s:153    .text:00000000000000c4 .L0 
     /tmp/ccbirNJ0.s:155    .text:00000000000000c8 .L0 
     /tmp/ccbirNJ0.s:156    .text:00000000000000c8 .L0 
     /tmp/ccbirNJ0.s:158    .text:00000000000000cc .L0 
     /tmp/ccbirNJ0.s:161    .text:00000000000000d0 .L0 
GAS LISTING /tmp/ccbirNJ0.s 			page 10


     /tmp/ccbirNJ0.s:164    .text:00000000000000d4 .L0 
     /tmp/ccbirNJ0.s:168    .text:00000000000000d8 .L0 
     /tmp/ccbirNJ0.s:174    .text:00000000000000d8 .L0 
     /tmp/ccbirNJ0.s:181    .text:00000000000000e4 .L0 
     /tmp/ccbirNJ0.s:187    .text:00000000000000e4 _ZN4_sem6signalEv
     /tmp/ccbirNJ0.s:190    .text:00000000000000e4 .L0 
     /tmp/ccbirNJ0.s:192    .text:00000000000000e4 .L0 
     /tmp/ccbirNJ0.s:193    .text:00000000000000e4 .L0 
     /tmp/ccbirNJ0.s:195    .text:00000000000000e8 .L0 
     /tmp/ccbirNJ0.s:200    .text:00000000000000f4 .L0 
     /tmp/ccbirNJ0.s:203    .text:00000000000000f8 .L0 
     /tmp/ccbirNJ0.s:204    .text:00000000000000f8 .L0 
     /tmp/ccbirNJ0.s:210    .text:0000000000000100 .L0 
     /tmp/ccbirNJ0.s:211    .text:0000000000000104 .L0 
     /tmp/ccbirNJ0.s:215    .text:0000000000000110 .L0 
     /tmp/ccbirNJ0.s:216    .text:0000000000000110 .L0 
     /tmp/ccbirNJ0.s:217    .text:0000000000000110 .L0 
     /tmp/ccbirNJ0.s:219    .text:0000000000000114 .L0 
     /tmp/ccbirNJ0.s:227    .text:0000000000000118 .L0 
     /tmp/ccbirNJ0.s:228    .text:0000000000000118 .L0 
     /tmp/ccbirNJ0.s:231    .text:000000000000011c .L0 
     /tmp/ccbirNJ0.s:234    .text:0000000000000120 .L0 
     /tmp/ccbirNJ0.s:236    .text:0000000000000124 .L0 
     /tmp/ccbirNJ0.s:238    .text:0000000000000128 .L0 
     /tmp/ccbirNJ0.s:241    .text:000000000000012c .L0 
     /tmp/ccbirNJ0.s:244    .text:0000000000000130 .L0 
     /tmp/ccbirNJ0.s:250    .text:0000000000000138 .L0 
     /tmp/ccbirNJ0.s:251    .text:0000000000000138 .L0 
     /tmp/ccbirNJ0.s:254    .text:0000000000000140 .L0 
     /tmp/ccbirNJ0.s:255    .text:0000000000000140 .L0 
     /tmp/ccbirNJ0.s:261    .text:000000000000014c .L0 
     /tmp/ccbirNJ0.s:262    .text:000000000000014c .L0 
     /tmp/ccbirNJ0.s:264    .text:0000000000000154 .L0 
     /tmp/ccbirNJ0.s:265    .text:0000000000000154 .L0 
     /tmp/ccbirNJ0.s:267    .text:0000000000000158 .L0 
     /tmp/ccbirNJ0.s:268    .text:0000000000000158 .L0 
     /tmp/ccbirNJ0.s:270    .text:000000000000015c .L0 
     /tmp/ccbirNJ0.s:273    .text:0000000000000160 .L0 
     /tmp/ccbirNJ0.s:277    .text:0000000000000164 .L0 
     /tmp/ccbirNJ0.s:283    .text:0000000000000164 .L0 
     /tmp/ccbirNJ0.s:288    .text:000000000000016c .L0 
     /tmp/ccbirNJ0.s:294    .text:0000000000000174 .L0 
     /tmp/ccbirNJ0.s:301    .text:0000000000000174 .L0 
     /tmp/ccbirNJ0.s:106    .text:000000000000007c .L0 
     /tmp/ccbirNJ0.s:87     .text:0000000000000060 .L11
     /tmp/ccbirNJ0.s:167    .text:00000000000000d8 .L5
     /tmp/ccbirNJ0.s:138    .text:00000000000000b4 .L6
     /tmp/ccbirNJ0.s:208    .text:0000000000000100 .L21
     /tmp/ccbirNJ0.s:286    .text:000000000000016c .L16
     /tmp/ccbirNJ0.s:276    .text:0000000000000164 .L22
     /tmp/ccbirNJ0.s:239    .text:000000000000012c .L15
     /tmp/ccbirNJ0.s:246    .text:0000000000000138 .L14
     /tmp/ccbirNJ0.s:1371   .debug_abbrev:0000000000000000 .Ldebug_abbrev0
     /tmp/ccbirNJ0.s:2857   .debug_str:0000000000000532 .LASF96
     /tmp/ccbirNJ0.s:2673   .debug_str:0000000000000043 .LASF97
     /tmp/ccbirNJ0.s:2721   .debug_str:00000000000001c8 .LASF98
     /tmp/ccbirNJ0.s:5      .text:0000000000000000 .Ltext0
GAS LISTING /tmp/ccbirNJ0.s 			page 11


     /tmp/ccbirNJ0.s:297    .text:0000000000000174 .Letext0
     /tmp/ccbirNJ0.s:2663   .debug_line:0000000000000000 .Ldebug_line0
     /tmp/ccbirNJ0.s:2789   .debug_str:00000000000003ac .LASF0
     /tmp/ccbirNJ0.s:2803   .debug_str:00000000000003f5 .LASF1
     /tmp/ccbirNJ0.s:2777   .debug_str:0000000000000346 .LASF2
     /tmp/ccbirNJ0.s:2743   .debug_str:0000000000000294 .LASF4
     /tmp/ccbirNJ0.s:2845   .debug_str:00000000000004e0 .LASF3
     /tmp/ccbirNJ0.s:2681   .debug_str:0000000000000093 .LASF5
     /tmp/ccbirNJ0.s:2807   .debug_str:000000000000040f .LASF6
     /tmp/ccbirNJ0.s:2787   .debug_str:0000000000000399 .LASF7
     /tmp/ccbirNJ0.s:2867   .debug_str:0000000000000623 .LASF8
     /tmp/ccbirNJ0.s:2727   .debug_str:0000000000000203 .LASF9
     /tmp/ccbirNJ0.s:2821   .debug_str:0000000000000463 .LASF10
     /tmp/ccbirNJ0.s:2861   .debug_str:0000000000000602 .LASF11
     /tmp/ccbirNJ0.s:2685   .debug_str:00000000000000a5 .LASF12
     /tmp/ccbirNJ0.s:2667   .debug_str:000000000000001e .LASF13
     /tmp/ccbirNJ0.s:2693   .debug_str:00000000000000dc .LASF14
     /tmp/ccbirNJ0.s:2837   .debug_str:00000000000004b9 .LASF15
     /tmp/ccbirNJ0.s:2703   .debug_str:000000000000013f .LASF16
     /tmp/ccbirNJ0.s:2817   .debug_str:0000000000000453 .LASF17
     /tmp/ccbirNJ0.s:2869   .debug_str:0000000000000633 .LASF67
     /tmp/ccbirNJ0.s:2737   .debug_str:0000000000000253 .LASF99
     /tmp/ccbirNJ0.s:2691   .debug_str:00000000000000c4 .LASF100
     /tmp/ccbirNJ0.s:2767   .debug_str:0000000000000313 .LASF18
     /tmp/ccbirNJ0.s:2863   .debug_str:0000000000000611 .LASF21
     /tmp/ccbirNJ0.s:2831   .debug_str:000000000000048d .LASF19
     /tmp/ccbirNJ0.s:2881   .debug_str:000000000000069d .LASF20
     /tmp/ccbirNJ0.s:2783   .debug_str:0000000000000370 .LASF65
     /tmp/ccbirNJ0.s:2707   .debug_str:0000000000000165 .LASF22
     /tmp/ccbirNJ0.s:2771   .debug_str:000000000000032a .LASF23
     /tmp/ccbirNJ0.s:2741   .debug_str:000000000000028f .LASF24
     /tmp/ccbirNJ0.s:2853   .debug_str:0000000000000516 .LASF26
     /tmp/ccbirNJ0.s:2835   .debug_str:00000000000004a2 .LASF31
     /tmp/ccbirNJ0.s:2785   .debug_str:000000000000038f .LASF101
     /tmp/ccbirNJ0.s:2731   .debug_str:0000000000000218 .LASF102
     /tmp/ccbirNJ0.s:2855   .debug_str:0000000000000529 .LASF25
     /tmp/ccbirNJ0.s:2711   .debug_str:0000000000000186 .LASF27
     /tmp/ccbirNJ0.s:2725   .debug_str:00000000000001fb .LASF28
     /tmp/ccbirNJ0.s:2709   .debug_str:000000000000016a .LASF29
     /tmp/ccbirNJ0.s:2859   .debug_str:00000000000005f6 .LASF30
     /tmp/ccbirNJ0.s:2665   .debug_str:0000000000000000 .LASF32
     /tmp/ccbirNJ0.s:2689   .debug_str:00000000000000ba .LASF33
     /tmp/ccbirNJ0.s:2755   .debug_str:00000000000002c4 .LASF34
     /tmp/ccbirNJ0.s:2795   .debug_str:00000000000003c8 .LASF35
     /tmp/ccbirNJ0.s:2675   .debug_str:0000000000000050 .LASF36
     /tmp/ccbirNJ0.s:2759   .debug_str:00000000000002f0 .LASF37
     /tmp/ccbirNJ0.s:2877   .debug_str:0000000000000661 .LASF38
     /tmp/ccbirNJ0.s:2729   .debug_str:0000000000000211 .LASF103
     /tmp/ccbirNJ0.s:2871   .debug_str:0000000000000647 .LASF39
     /tmp/ccbirNJ0.s:2819   .debug_str:000000000000045d .LASF40
     /tmp/ccbirNJ0.s:2815   .debug_str:000000000000044b .LASF41
     /tmp/ccbirNJ0.s:2851   .debug_str:000000000000050d .LASF42
     /tmp/ccbirNJ0.s:2745   .debug_str:000000000000029b .LASF43
     /tmp/ccbirNJ0.s:2671   .debug_str:000000000000003b .LASF44
     /tmp/ccbirNJ0.s:2713   .debug_str:00000000000001a3 .LASF45
     /tmp/ccbirNJ0.s:2827   .debug_str:000000000000047c .LASF46
     /tmp/ccbirNJ0.s:2809   .debug_str:0000000000000422 .LASF47
GAS LISTING /tmp/ccbirNJ0.s 			page 12


     /tmp/ccbirNJ0.s:2699   .debug_str:000000000000011a .LASF48
     /tmp/ccbirNJ0.s:2779   .debug_str:0000000000000354 .LASF49
     /tmp/ccbirNJ0.s:2883   .debug_str:00000000000006a2 .LASF50
     /tmp/ccbirNJ0.s:2749   .debug_str:00000000000002a8 .LASF51
     /tmp/ccbirNJ0.s:2757   .debug_str:00000000000002df .LASF52
     /tmp/ccbirNJ0.s:2769   .debug_str:000000000000031d .LASF53
     /tmp/ccbirNJ0.s:2679   .debug_str:000000000000007a .LASF54
     /tmp/ccbirNJ0.s:2753   .debug_str:00000000000002b7 .LASF55
     /tmp/ccbirNJ0.s:2879   .debug_str:000000000000067b .LASF56
     /tmp/ccbirNJ0.s:2829   .debug_str:0000000000000488 .LASF104
     /tmp/ccbirNJ0.s:2839   .debug_str:00000000000004cf .LASF105
     /tmp/ccbirNJ0.s:2781   .debug_str:0000000000000360 .LASF106
     /tmp/ccbirNJ0.s:2801   .debug_str:00000000000003ef .LASF57
     /tmp/ccbirNJ0.s:2775   .debug_str:0000000000000336 .LASF58
     /tmp/ccbirNJ0.s:2715   .debug_str:00000000000001a8 .LASF107
     /tmp/ccbirNJ0.s:2813   .debug_str:0000000000000434 .LASF108
     /tmp/ccbirNJ0.s:2747   .debug_str:00000000000002a3 .LASF59
     /tmp/ccbirNJ0.s:2793   .debug_str:00000000000003c2 .LASF60
     /tmp/ccbirNJ0.s:2751   .debug_str:00000000000002af .LASF61
     /tmp/ccbirNJ0.s:2797   .debug_str:00000000000003d3 .LASF62
     /tmp/ccbirNJ0.s:2805   .debug_str:0000000000000408 .LASF63
     /tmp/ccbirNJ0.s:2701   .debug_str:0000000000000131 .LASF64
     /tmp/ccbirNJ0.s:2739   .debug_str:0000000000000267 .LASF66
     /tmp/ccbirNJ0.s:2791   .debug_str:00000000000003b9 .LASF69
     /tmp/ccbirNJ0.s:2717   .debug_str:00000000000001b0 .LASF71
     /tmp/ccbirNJ0.s:2847   .debug_str:00000000000004f2 .LASF68
     /tmp/ccbirNJ0.s:2761   .debug_str:00000000000002f9 .LASF70
     /tmp/ccbirNJ0.s:2733   .debug_str:000000000000022f .LASF72
     /tmp/ccbirNJ0.s:2683   .debug_str:000000000000009a .LASF73
     /tmp/ccbirNJ0.s:2735   .debug_str:0000000000000248 .LASF74
     /tmp/ccbirNJ0.s:2719   .debug_str:00000000000001c3 .LASF75
     /tmp/ccbirNJ0.s:2875   .debug_str:000000000000065c .LASF76
     /tmp/ccbirNJ0.s:2765   .debug_str:000000000000030d .LASF77
     /tmp/ccbirNJ0.s:2677   .debug_str:000000000000006d .LASF78
     /tmp/ccbirNJ0.s:2849   .debug_str:0000000000000503 .LASF79
     /tmp/ccbirNJ0.s:2723   .debug_str:00000000000001e6 .LASF80
     /tmp/ccbirNJ0.s:2687   .debug_str:00000000000000b5 .LASF81
     /tmp/ccbirNJ0.s:2833   .debug_str:0000000000000492 .LASF82
     /tmp/ccbirNJ0.s:2811   .debug_str:000000000000042d .LASF83
     /tmp/ccbirNJ0.s:2799   .debug_str:00000000000003dd .LASF84
     /tmp/ccbirNJ0.s:2865   .debug_str:0000000000000616 .LASF109
     /tmp/ccbirNJ0.s:2763   .debug_str:0000000000000307 .LASF85
     /tmp/ccbirNJ0.s:2825   .debug_str:0000000000000477 .LASF86
     /tmp/ccbirNJ0.s:2697   .debug_str:00000000000000fb .LASF88
     /tmp/ccbirNJ0.s:2841   .debug_str:00000000000004d5 .LASF87
     /tmp/ccbirNJ0.s:2695   .debug_str:00000000000000e8 .LASF89
     /tmp/ccbirNJ0.s:188    .text:00000000000000e4 .LFB42
     /tmp/ccbirNJ0.s:295    .text:0000000000000174 .LFE42
     /tmp/ccbirNJ0.s:2414   .debug_loc:0000000000000000 .LLST12
     /tmp/ccbirNJ0.s:2637   .debug_ranges:0000000000000000 .Ldebug_ranges0
     /tmp/ccbirNJ0.s:2823   .debug_str:0000000000000472 .LASF90
     /tmp/ccbirNJ0.s:2447   .debug_loc:0000000000000088 .LLST13
     /tmp/ccbirNJ0.s:225    .text:0000000000000118 .LBB43
     /tmp/ccbirNJ0.s:2454   .debug_loc:00000000000000ab .LLST14
     /tmp/ccbirNJ0.s:2472   .debug_loc:00000000000000f7 .LLST15
     /tmp/ccbirNJ0.s:2483   .debug_loc:000000000000012d .LLST16
     /tmp/ccbirNJ0.s:245    .text:0000000000000138 .LVL25
GAS LISTING /tmp/ccbirNJ0.s 			page 13


     /tmp/ccbirNJ0.s:257    .text:000000000000014c .LVL26
     /tmp/ccbirNJ0.s:67     .text:0000000000000044 .LFB41
     /tmp/ccbirNJ0.s:182    .text:00000000000000e4 .LFE41
     /tmp/ccbirNJ0.s:2490   .debug_loc:0000000000000150 .LLST4
     /tmp/ccbirNJ0.s:2523   .debug_loc:00000000000001d8 .LLST5
     /tmp/ccbirNJ0.s:115    .text:0000000000000090 .LBB32
     /tmp/ccbirNJ0.s:2534   .debug_loc:000000000000020e .LLST6
     /tmp/ccbirNJ0.s:2545   .debug_loc:0000000000000244 .LLST7
     /tmp/ccbirNJ0.s:2556   .debug_loc:000000000000027a .LLST8
     /tmp/ccbirNJ0.s:122    .text:000000000000009c .LBB34
     /tmp/ccbirNJ0.s:129    .text:00000000000000a4 .LBE34
     /tmp/ccbirNJ0.s:2567   .debug_loc:00000000000002b0 .LLST9
     /tmp/ccbirNJ0.s:2575   .debug_loc:00000000000002d4 .LLST10
     /tmp/ccbirNJ0.s:2582   .debug_loc:00000000000002f7 .LLST11
     /tmp/ccbirNJ0.s:121    .text:000000000000009c .LVL11
     /tmp/ccbirNJ0.s:145    .text:00000000000000bc .LVL14
     /tmp/ccbirNJ0.s:10     .text:0000000000000000 .LFB40
     /tmp/ccbirNJ0.s:61     .text:0000000000000044 .LFE40
     /tmp/ccbirNJ0.s:2589   .debug_loc:000000000000031a .LLST0
     /tmp/ccbirNJ0.s:32     .text:0000000000000024 .LBB26
     /tmp/ccbirNJ0.s:48     .text:0000000000000030 .LBE26
     /tmp/ccbirNJ0.s:2603   .debug_loc:0000000000000353 .LLST1
     /tmp/ccbirNJ0.s:2610   .debug_loc:0000000000000376 .LLST2
     /tmp/ccbirNJ0.s:34     .text:0000000000000024 .LBB28
     /tmp/ccbirNJ0.s:42     .text:000000000000002c .LBE28
     /tmp/ccbirNJ0.s:2617   .debug_loc:0000000000000399 .LLST3
     /tmp/ccbirNJ0.s:31     .text:0000000000000024 .LVL2
     /tmp/ccbirNJ0.s:2669   .debug_str:000000000000002e .LASF91
     /tmp/ccbirNJ0.s:2773   .debug_str:000000000000032f .LASF92
     /tmp/ccbirNJ0.s:2705   .debug_str:0000000000000155 .LASF94
     /tmp/ccbirNJ0.s:2843   .debug_str:00000000000004da .LASF93
     /tmp/ccbirNJ0.s:2873   .debug_str:000000000000064f .LASF95
     /tmp/ccbirNJ0.s:191    .text:00000000000000e4 .LVL18
     /tmp/ccbirNJ0.s:205    .text:00000000000000fc .LVL19
     /tmp/ccbirNJ0.s:207    .text:0000000000000100 .LVL20
     /tmp/ccbirNJ0.s:229    .text:000000000000011c .LVL22
     /tmp/ccbirNJ0.s:275    .text:0000000000000164 .LVL28
     /tmp/ccbirNJ0.s:271    .text:000000000000015c .LVL27
     /tmp/ccbirNJ0.s:224    .text:0000000000000118 .LVL21
     /tmp/ccbirNJ0.s:232    .text:0000000000000120 .LVL23
     /tmp/ccbirNJ0.s:285    .text:000000000000016c .LVL29
     /tmp/ccbirNJ0.s:242    .text:0000000000000130 .LVL24
     /tmp/ccbirNJ0.s:70     .text:0000000000000044 .LVL5
     /tmp/ccbirNJ0.s:84     .text:000000000000005c .LVL6
     /tmp/ccbirNJ0.s:86     .text:0000000000000060 .LVL7
     /tmp/ccbirNJ0.s:119    .text:0000000000000094 .LVL10
     /tmp/ccbirNJ0.s:159    .text:00000000000000cc .LVL15
     /tmp/ccbirNJ0.s:166    .text:00000000000000d8 .LVL17
     /tmp/ccbirNJ0.s:108    .text:0000000000000088 .LVL8
     /tmp/ccbirNJ0.s:162    .text:00000000000000d0 .LVL16
     /tmp/ccbirNJ0.s:114    .text:0000000000000090 .LVL9
     /tmp/ccbirNJ0.s:139    .text:00000000000000b4 .LVL13
     /tmp/ccbirNJ0.s:127    .text:00000000000000a4 .LVL12
     /tmp/ccbirNJ0.s:14     .text:0000000000000000 .LVL0
     /tmp/ccbirNJ0.s:29     .text:000000000000001c .LVL1
     /tmp/ccbirNJ0.s:46     .text:0000000000000030 .LVL4
     /tmp/ccbirNJ0.s:40     .text:000000000000002c .LVL3
GAS LISTING /tmp/ccbirNJ0.s 			page 14


     /tmp/ccbirNJ0.s:302    .debug_info:0000000000000000 .Ldebug_info0
     /tmp/ccbirNJ0.s:103    .text:000000000000007c .LBB31
     /tmp/ccbirNJ0.s:146    .text:00000000000000bc .LBE31
     /tmp/ccbirNJ0.s:170    .text:00000000000000d8 .LBB38
     /tmp/ccbirNJ0.s:179    .text:00000000000000e4 .LBE38
     /tmp/ccbirNJ0.s:141    .text:00000000000000b4 .LBE32
     /tmp/ccbirNJ0.s:171    .text:00000000000000d8 .LBB37
     /tmp/ccbirNJ0.s:178    .text:00000000000000e4 .LBE37
     /tmp/ccbirNJ0.s:222    .text:0000000000000118 .LBB42
     /tmp/ccbirNJ0.s:258    .text:000000000000014c .LBE42
     /tmp/ccbirNJ0.s:279    .text:0000000000000164 .LBB47
     /tmp/ccbirNJ0.s:292    .text:0000000000000174 .LBE47
     /tmp/ccbirNJ0.s:248    .text:0000000000000138 .LBE43
     /tmp/ccbirNJ0.s:280    .text:0000000000000164 .LBB46
     /tmp/ccbirNJ0.s:291    .text:0000000000000174 .LBE46

UNDEFINED SYMBOLS
_Znwm
_ZN3TCB7runningE
_ZN3TCB8dispatchEv
_ZdlPv
_ZN9Scheduler3putEP3TCB
