GAS LISTING /tmp/cchkHLG8.s 			page 1


   1              		.file	"main.cpp"
   2              		.option pic
   3              		.option norelax
   4              		.text
   5              	.Ltext0:
   6              		.align	2
   7              		.globl	_Z15userMainWrapperPv
   9              	_Z15userMainWrapperPv:
  10              	.LFB51:
  11              		.file 1 "src/main.cpp"
   1:src/main.cpp  **** #include "../h/tcb.hpp"
   2:src/main.cpp  **** #include "../h/workers.hpp"
   3:src/main.cpp  **** #include "../h/print.hpp"
   4:src/main.cpp  **** #include "../h/riscv.hpp"
   5:src/main.cpp  **** #include "../test/userMain.hpp"
   6:src/main.cpp  **** #include "../h/syscall_c.hpp"
   7:src/main.cpp  **** 
   8:src/main.cpp  **** #include "../test/test_file.hpp"
   9:src/main.cpp  **** #include "../h/syscall_cpp.hpp"
  10:src/main.cpp  **** 
  11:src/main.cpp  **** void userMainWrapper(void* arg){
  12              		.loc 1 11 32
  13              		.cfi_startproc
  14              	.LVL0:
  15 0000 130101FF 		addi	sp,sp,-16
  16              		.cfi_def_cfa_offset 16
  17 0004 23341100 		sd	ra,8(sp)
  18 0008 23308100 		sd	s0,0(sp)
  19              		.cfi_offset 1, -8
  20              		.cfi_offset 8, -16
  21 000c 13040101 		addi	s0,sp,16
  22              		.cfi_def_cfa 8, 0
  12:src/main.cpp  ****     userMain();
  23              		.loc 1 12 5
  24              		.loc 1 12 13 is_stmt 0
  25 0010 97000000 		call	_Z8userMainv@plt
  25      E7800000 
  26              	.LVL1:
  13:src/main.cpp  **** }
  27              		.loc 1 13 1
  28 0018 83308100 		ld	ra,8(sp)
  29              		.cfi_restore 1
  30 001c 03340100 		ld	s0,0(sp)
  31              		.cfi_restore 8
  32              		.cfi_def_cfa 2, 16
  33 0020 13010101 		addi	sp,sp,16
  34              		.cfi_def_cfa_offset 0
  35 0024 67800000 		jr	ra
  36              		.cfi_endproc
  37              	.LFE51:
  39              		.section	.rodata.str1.8,"aMS",@progbits,1
  40              		.align	3
  41              	.LC0:
  42 0000 413A2069 		.string	"A: i="
  42      3D00
  43 0006 0000     		.align	3
  44              	.LC1:
GAS LISTING /tmp/cchkHLG8.s 			page 2


  45 0008 0A00     		.string	"\n"
  46 000a 00000000 		.align	3
  46      0000
  47              	.LC2:
  48 0010 41206669 		.string	"A finished!\n"
  48      6E697368 
  48      6564210A 
  48      00
  49              		.text
  50              		.align	2
  51              		.globl	_ZN7WorkerA9testBodyAEPv
  53              	_ZN7WorkerA9testBodyAEPv:
  54              	.LFB49:
  55              		.file 2 "src/../test/test_file.hpp"
   1:src/../test/test_file.hpp **** //
   2:src/../test/test_file.hpp **** // Created by os on 9/4/22.
   3:src/../test/test_file.hpp **** //
   4:src/../test/test_file.hpp **** 
   5:src/../test/test_file.hpp **** #ifndef PROJECT_BASE_TEST_FILE_HPP
   6:src/../test/test_file.hpp **** #define PROJECT_BASE_TEST_FILE_HPP
   7:src/../test/test_file.hpp **** 
   8:src/../test/test_file.hpp **** #include "../h/syscall_c.hpp"
   9:src/../test/test_file.hpp **** 
  10:src/../test/test_file.hpp **** #include "../h/print.hpp"
  11:src/../test/test_file.hpp **** #include "../h/syscall_cpp.hpp"
  12:src/../test/test_file.hpp **** 
  13:src/../test/test_file.hpp **** class WorkerA: public Thread {
  14:src/../test/test_file.hpp ****     void testBodyA(void* arg);
  15:src/../test/test_file.hpp **** public:
  16:src/../test/test_file.hpp ****     WorkerA():Thread() {}
  17:src/../test/test_file.hpp **** 
  18:src/../test/test_file.hpp ****     void run() override {
  19:src/../test/test_file.hpp ****         printString("WorkerBodyA");
  20:src/../test/test_file.hpp ****         testBodyA(nullptr);
  21:src/../test/test_file.hpp ****     }
  22:src/../test/test_file.hpp **** };
  23:src/../test/test_file.hpp **** 
  24:src/../test/test_file.hpp **** class WorkerB: public Thread {
  25:src/../test/test_file.hpp ****     void testBodyB(void* arg);
  26:src/../test/test_file.hpp **** public:
  27:src/../test/test_file.hpp ****     WorkerB():Thread() {}
  28:src/../test/test_file.hpp **** 
  29:src/../test/test_file.hpp ****     void run() override {
  30:src/../test/test_file.hpp ****         printString("WorkerBodyA");
  31:src/../test/test_file.hpp ****         testBodyB(nullptr);
  32:src/../test/test_file.hpp ****     }
  33:src/../test/test_file.hpp **** };
  34:src/../test/test_file.hpp **** 
  35:src/../test/test_file.hpp **** void WorkerA::testBodyA(void* arg) {
  56              		.loc 2 35 36 is_stmt 1
  57              		.cfi_startproc
  58              	.LVL2:
  59 0028 130101FE 		addi	sp,sp,-32
  60              		.cfi_def_cfa_offset 32
  61 002c 233C1100 		sd	ra,24(sp)
  62 0030 23388100 		sd	s0,16(sp)
  63 0034 23349100 		sd	s1,8(sp)
GAS LISTING /tmp/cchkHLG8.s 			page 3


  64 0038 23302101 		sd	s2,0(sp)
  65              		.cfi_offset 1, -8
  66              		.cfi_offset 8, -16
  67              		.cfi_offset 9, -24
  68              		.cfi_offset 18, -32
  69 003c 13040102 		addi	s0,sp,32
  70              		.cfi_def_cfa 8, 0
  36:src/../test/test_file.hpp ****     for (uint64 i = 0; i < 10; i++) {
  71              		.loc 2 36 5
  72              	.LVL3:
  73              	.LBB14:
  74              		.loc 2 36 17 is_stmt 0
  75 0040 13090000 		li	s2,0
  76 0044 6F008003 		j	.L9
  77              	.LVL4:
  78              	.L6:
  79              	.LBB15:
  80              	.LBB16:
  81              	.LBB17:
  37:src/../test/test_file.hpp ****         printString("A: i="); printInteger(i); printString("\n");
  38:src/../test/test_file.hpp ****         for (uint64 j = 0; j < 10000; j++) {
  39:src/../test/test_file.hpp ****             for (uint64 k = 0; k < 30000; k++) { /* busy wait */ }
  40:src/../test/test_file.hpp ****             thread_dispatch();
  82              		.loc 2 40 13 is_stmt 1 discriminator 2
  83              		.loc 2 40 28 is_stmt 0 discriminator 2
  84 0048 97000000 		call	_Z15thread_dispatchv@plt
  84      E7800000 
  85              	.LVL5:
  86              	.LBE17:
  38:src/../test/test_file.hpp ****             for (uint64 k = 0; k < 30000; k++) { /* busy wait */ }
  87              		.loc 2 38 9 is_stmt 1 discriminator 2
  88 0050 93841400 		addi	s1,s1,1
  89              	.LVL6:
  90              	.L8:
  38:src/../test/test_file.hpp ****             for (uint64 k = 0; k < 30000; k++) { /* busy wait */ }
  91              		.loc 2 38 30 discriminator 1
  92 0054 B7270000 		li	a5,8192
  93 0058 9387F770 		addi	a5,a5,1807
  94 005c 63EE9700 		bgtu	s1,a5,.L5
  95              	.LBB19:
  96              	.LBB18:
  39:src/../test/test_file.hpp ****             thread_dispatch();
  97              		.loc 2 39 25 is_stmt 0
  98 0060 13070000 		li	a4,0
  99              	.L7:
 100              	.LVL7:
  39:src/../test/test_file.hpp ****             thread_dispatch();
 101              		.loc 2 39 34 is_stmt 1 discriminator 3
 102 0064 B7770000 		li	a5,28672
 103 0068 9387F752 		addi	a5,a5,1327
 104 006c E3EEE7FC 		bgtu	a4,a5,.L6
  39:src/../test/test_file.hpp ****             thread_dispatch();
 105              		.loc 2 39 13 discriminator 2
 106 0070 13071700 		addi	a4,a4,1
 107              	.LVL8:
 108 0074 6FF01FFF 		j	.L7
 109              	.LVL9:
GAS LISTING /tmp/cchkHLG8.s 			page 4


 110              	.L5:
 111              	.LBE18:
 112              	.LBE19:
 113              	.LBE16:
 114              	.LBE15:
  36:src/../test/test_file.hpp ****         printString("A: i="); printInteger(i); printString("\n");
 115              		.loc 2 36 5 discriminator 2
 116 0078 13091900 		addi	s2,s2,1
 117              	.LVL10:
 118              	.L9:
  36:src/../test/test_file.hpp ****         printString("A: i="); printInteger(i); printString("\n");
 119              		.loc 2 36 26 discriminator 1
 120 007c 93079000 		li	a5,9
 121 0080 63EC2703 		bgtu	s2,a5,.L4
 122              	.LBB21:
  37:src/../test/test_file.hpp ****         for (uint64 j = 0; j < 10000; j++) {
 123              		.loc 2 37 9
  37:src/../test/test_file.hpp ****         for (uint64 j = 0; j < 10000; j++) {
 124              		.loc 2 37 20 is_stmt 0
 125 0084 17050000 		lla	a0,.LC0
 125      13050500 
 126 008c 97000000 		call	_Z11printStringPKc@plt
 126      E7800000 
 127              	.LVL11:
  37:src/../test/test_file.hpp ****         for (uint64 j = 0; j < 10000; j++) {
 128              		.loc 2 37 31 is_stmt 1
  37:src/../test/test_file.hpp ****         for (uint64 j = 0; j < 10000; j++) {
 129              		.loc 2 37 43 is_stmt 0
 130 0094 13050900 		mv	a0,s2
 131 0098 97000000 		call	_Z12printIntegerm@plt
 131      E7800000 
 132              	.LVL12:
  37:src/../test/test_file.hpp ****         for (uint64 j = 0; j < 10000; j++) {
 133              		.loc 2 37 48 is_stmt 1
  37:src/../test/test_file.hpp ****         for (uint64 j = 0; j < 10000; j++) {
 134              		.loc 2 37 59 is_stmt 0
 135 00a0 17050000 		lla	a0,.LC1
 135      13050500 
 136 00a8 97000000 		call	_Z11printStringPKc@plt
 136      E7800000 
 137              	.LVL13:
  38:src/../test/test_file.hpp ****             for (uint64 k = 0; k < 30000; k++) { /* busy wait */ }
 138              		.loc 2 38 9 is_stmt 1
 139              	.LBB20:
  38:src/../test/test_file.hpp ****             for (uint64 k = 0; k < 30000; k++) { /* busy wait */ }
 140              		.loc 2 38 21 is_stmt 0
 141 00b0 93040000 		li	s1,0
 142 00b4 6FF01FFA 		j	.L8
 143              	.LVL14:
 144              	.L4:
 145              	.LBE20:
 146              	.LBE21:
 147              	.LBE14:
  41:src/../test/test_file.hpp ****         }
  42:src/../test/test_file.hpp ****     }
  43:src/../test/test_file.hpp ****     printString("A finished!\n");
 148              		.loc 2 43 5 is_stmt 1
GAS LISTING /tmp/cchkHLG8.s 			page 5


 149              		.loc 2 43 16 is_stmt 0
 150 00b8 17050000 		lla	a0,.LC2
 150      13050500 
 151 00c0 97000000 		call	_Z11printStringPKc@plt
 151      E7800000 
 152              	.LVL15:
  44:src/../test/test_file.hpp ****     //finishedA = true;
  45:src/../test/test_file.hpp **** }
 153              		.loc 2 45 1
 154 00c8 83308101 		ld	ra,24(sp)
 155              		.cfi_restore 1
 156 00cc 03340101 		ld	s0,16(sp)
 157              		.cfi_restore 8
 158              		.cfi_def_cfa 2, 32
 159 00d0 83348100 		ld	s1,8(sp)
 160              		.cfi_restore 9
 161 00d4 03390100 		ld	s2,0(sp)
 162              		.cfi_restore 18
 163              	.LVL16:
 164 00d8 13010102 		addi	sp,sp,32
 165              		.cfi_def_cfa_offset 0
 166 00dc 67800000 		jr	ra
 167              		.cfi_endproc
 168              	.LFE49:
 170              		.section	.rodata.str1.8
 171 001d 000000   		.align	3
 172              	.LC3:
 173 0020 423A2069 		.string	"B: i="
 173      3D00
 174 0026 0000     		.align	3
 175              	.LC4:
 176 0028 42206669 		.string	"B finished!\n"
 176      6E697368 
 176      6564210A 
 176      00
 177              		.text
 178              		.align	2
 179              		.globl	_ZN7WorkerB9testBodyBEPv
 181              	_ZN7WorkerB9testBodyBEPv:
 182              	.LFB50:
  46:src/../test/test_file.hpp **** 
  47:src/../test/test_file.hpp **** void WorkerB::testBodyB(void* arg) {
 183              		.loc 2 47 36 is_stmt 1
 184              		.cfi_startproc
 185              	.LVL17:
 186 00e0 130101FE 		addi	sp,sp,-32
 187              		.cfi_def_cfa_offset 32
 188 00e4 233C1100 		sd	ra,24(sp)
 189 00e8 23388100 		sd	s0,16(sp)
 190 00ec 23349100 		sd	s1,8(sp)
 191 00f0 23302101 		sd	s2,0(sp)
 192              		.cfi_offset 1, -8
 193              		.cfi_offset 8, -16
 194              		.cfi_offset 9, -24
 195              		.cfi_offset 18, -32
 196 00f4 13040102 		addi	s0,sp,32
 197              		.cfi_def_cfa 8, 0
GAS LISTING /tmp/cchkHLG8.s 			page 6


  48:src/../test/test_file.hpp ****     for (uint64 i = 0; i < 16; i++) {
 198              		.loc 2 48 5
 199              	.LVL18:
 200              	.LBB22:
 201              		.loc 2 48 17 is_stmt 0
 202 00f8 13090000 		li	s2,0
 203 00fc 6F008003 		j	.L17
 204              	.LVL19:
 205              	.L14:
 206              	.LBB23:
 207              	.LBB24:
 208              	.LBB25:
  49:src/../test/test_file.hpp ****         printString("B: i="); printInteger(i); printString("\n");
  50:src/../test/test_file.hpp ****         for (uint64 j = 0; j < 10000; j++) {
  51:src/../test/test_file.hpp ****             for (uint64 k = 0; k < 30000; k++) { /* busy wait */ }
  52:src/../test/test_file.hpp ****             thread_dispatch();
 209              		.loc 2 52 13 is_stmt 1 discriminator 2
 210              		.loc 2 52 28 is_stmt 0 discriminator 2
 211 0100 97000000 		call	_Z15thread_dispatchv@plt
 211      E7800000 
 212              	.LVL20:
 213              	.LBE25:
  50:src/../test/test_file.hpp ****             for (uint64 k = 0; k < 30000; k++) { /* busy wait */ }
 214              		.loc 2 50 9 is_stmt 1 discriminator 2
 215 0108 93841400 		addi	s1,s1,1
 216              	.LVL21:
 217              	.L16:
  50:src/../test/test_file.hpp ****             for (uint64 k = 0; k < 30000; k++) { /* busy wait */ }
 218              		.loc 2 50 30 discriminator 1
 219 010c B7270000 		li	a5,8192
 220 0110 9387F770 		addi	a5,a5,1807
 221 0114 63EE9700 		bgtu	s1,a5,.L13
 222              	.LBB27:
 223              	.LBB26:
  51:src/../test/test_file.hpp ****             thread_dispatch();
 224              		.loc 2 51 25 is_stmt 0
 225 0118 13070000 		li	a4,0
 226              	.L15:
 227              	.LVL22:
  51:src/../test/test_file.hpp ****             thread_dispatch();
 228              		.loc 2 51 34 is_stmt 1 discriminator 3
 229 011c B7770000 		li	a5,28672
 230 0120 9387F752 		addi	a5,a5,1327
 231 0124 E3EEE7FC 		bgtu	a4,a5,.L14
  51:src/../test/test_file.hpp ****             thread_dispatch();
 232              		.loc 2 51 13 discriminator 2
 233 0128 13071700 		addi	a4,a4,1
 234              	.LVL23:
 235 012c 6FF01FFF 		j	.L15
 236              	.LVL24:
 237              	.L13:
 238              	.LBE26:
 239              	.LBE27:
 240              	.LBE24:
 241              	.LBE23:
  48:src/../test/test_file.hpp ****         printString("B: i="); printInteger(i); printString("\n");
 242              		.loc 2 48 5 discriminator 2
GAS LISTING /tmp/cchkHLG8.s 			page 7


 243 0130 13091900 		addi	s2,s2,1
 244              	.LVL25:
 245              	.L17:
  48:src/../test/test_file.hpp ****         printString("B: i="); printInteger(i); printString("\n");
 246              		.loc 2 48 26 discriminator 1
 247 0134 9307F000 		li	a5,15
 248 0138 63EC2703 		bgtu	s2,a5,.L12
 249              	.LBB29:
  49:src/../test/test_file.hpp ****         for (uint64 j = 0; j < 10000; j++) {
 250              		.loc 2 49 9
  49:src/../test/test_file.hpp ****         for (uint64 j = 0; j < 10000; j++) {
 251              		.loc 2 49 20 is_stmt 0
 252 013c 17050000 		lla	a0,.LC3
 252      13050500 
 253 0144 97000000 		call	_Z11printStringPKc@plt
 253      E7800000 
 254              	.LVL26:
  49:src/../test/test_file.hpp ****         for (uint64 j = 0; j < 10000; j++) {
 255              		.loc 2 49 31 is_stmt 1
  49:src/../test/test_file.hpp ****         for (uint64 j = 0; j < 10000; j++) {
 256              		.loc 2 49 43 is_stmt 0
 257 014c 13050900 		mv	a0,s2
 258 0150 97000000 		call	_Z12printIntegerm@plt
 258      E7800000 
 259              	.LVL27:
  49:src/../test/test_file.hpp ****         for (uint64 j = 0; j < 10000; j++) {
 260              		.loc 2 49 48 is_stmt 1
  49:src/../test/test_file.hpp ****         for (uint64 j = 0; j < 10000; j++) {
 261              		.loc 2 49 59 is_stmt 0
 262 0158 17050000 		lla	a0,.LC1
 262      13050500 
 263 0160 97000000 		call	_Z11printStringPKc@plt
 263      E7800000 
 264              	.LVL28:
  50:src/../test/test_file.hpp ****             for (uint64 k = 0; k < 30000; k++) { /* busy wait */ }
 265              		.loc 2 50 9 is_stmt 1
 266              	.LBB28:
  50:src/../test/test_file.hpp ****             for (uint64 k = 0; k < 30000; k++) { /* busy wait */ }
 267              		.loc 2 50 21 is_stmt 0
 268 0168 93040000 		li	s1,0
 269 016c 6FF01FFA 		j	.L16
 270              	.LVL29:
 271              	.L12:
 272              	.LBE28:
 273              	.LBE29:
 274              	.LBE22:
  53:src/../test/test_file.hpp ****         }
  54:src/../test/test_file.hpp ****     }
  55:src/../test/test_file.hpp ****     printString("B finished!\n");
 275              		.loc 2 55 5 is_stmt 1
 276              		.loc 2 55 16 is_stmt 0
 277 0170 17050000 		lla	a0,.LC4
 277      13050500 
 278 0178 97000000 		call	_Z11printStringPKc@plt
 278      E7800000 
 279              	.LVL30:
  56:src/../test/test_file.hpp ****     //finishedB = true;
GAS LISTING /tmp/cchkHLG8.s 			page 8


  57:src/../test/test_file.hpp ****     thread_dispatch();
 280              		.loc 2 57 5 is_stmt 1
 281              		.loc 2 57 20 is_stmt 0
 282 0180 97000000 		call	_Z15thread_dispatchv@plt
 282      E7800000 
 283              	.LVL31:
  58:src/../test/test_file.hpp **** }
 284              		.loc 2 58 1
 285 0188 83308101 		ld	ra,24(sp)
 286              		.cfi_restore 1
 287 018c 03340101 		ld	s0,16(sp)
 288              		.cfi_restore 8
 289              		.cfi_def_cfa 2, 32
 290 0190 83348100 		ld	s1,8(sp)
 291              		.cfi_restore 9
 292 0194 03390100 		ld	s2,0(sp)
 293              		.cfi_restore 18
 294              	.LVL32:
 295 0198 13010102 		addi	sp,sp,32
 296              		.cfi_def_cfa_offset 0
 297 019c 67800000 		jr	ra
 298              		.cfi_endproc
 299              	.LFE50:
 301              		.section	.rodata.str1.8
 302 0035 000000   		.align	3
 303              	.LC5:
 304 0038 53746172 		.string	"Started \n"
 304      74656420 
 304      0A00
 305 0042 00000000 		.align	3
 305      0000
 306              	.LC6:
 307 0048 46696E69 		.string	"Finished! \n"
 307      73686564 
 307      21200A00 
 308              		.text
 309              		.align	2
 310              		.globl	main
 312              	main:
 313              	.LFB52:
  14:src/main.cpp  **** 
  15:src/main.cpp  **** int main ()
  16:src/main.cpp  **** {
 314              		.loc 1 16 1 is_stmt 1
 315              		.cfi_startproc
 316 01a0 130101FD 		addi	sp,sp,-48
 317              		.cfi_def_cfa_offset 48
 318 01a4 23341102 		sd	ra,40(sp)
 319 01a8 23308102 		sd	s0,32(sp)
 320 01ac 233C9100 		sd	s1,24(sp)
 321 01b0 23382101 		sd	s2,16(sp)
 322              		.cfi_offset 1, -8
 323              		.cfi_offset 8, -16
 324              		.cfi_offset 9, -24
 325              		.cfi_offset 18, -32
 326 01b4 13040103 		addi	s0,sp,48
 327              		.cfi_def_cfa 8, 0
GAS LISTING /tmp/cchkHLG8.s 			page 9


  17:src/main.cpp  ****     //printString("Started \n");
  18:src/main.cpp  **** 
  19:src/main.cpp  ****     TCB *mainThread = TCB::createThread(nullptr, nullptr, nullptr);
 328              		.loc 1 19 5
 329              		.loc 1 19 40 is_stmt 0
 330 01b8 13060000 		li	a2,0
 331 01bc 93050000 		li	a1,0
 332 01c0 13050000 		li	a0,0
 333 01c4 97000000 		call	_ZN3TCB12createThreadEPFvPvES0_Pm@plt
 333      E7800000 
 334              	.LVL33:
 335 01cc 13090500 		mv	s2,a0
 336              	.LVL34:
  20:src/main.cpp  ****     TCB::running = mainThread;
 337              		.loc 1 20 5 is_stmt 1
 338              		.loc 1 20 18 is_stmt 0
 339 01d0 97070000 		la	a5,_ZN3TCB7runningE
 339      83B70700 
 340 01d8 23B0A700 		sd	a0,0(a5)
  21:src/main.cpp  **** 
  22:src/main.cpp  ****     Riscv::w_stvec( (uint64) &Riscv::supervisorTrap);   //adresa prekidne rutine
 341              		.loc 1 22 5 is_stmt 1
 342              		.loc 1 22 19 is_stmt 0
 343 01dc 97070000 		la	a5,_ZN5Riscv14supervisorTrapEv
 343      83B70700 
 344              	.LVL35:
 345              	.LBB30:
 346              	.LBB31:
 347              		.file 3 "src/../h/riscv.hpp"
   1:src/../h/riscv.hpp **** //
   2:src/../h/riscv.hpp **** // Created by marko on 20.4.22..
   3:src/../h/riscv.hpp **** //
   4:src/../h/riscv.hpp **** 
   5:src/../h/riscv.hpp **** #ifndef OS1_VEZBE07_RISCV_CONTEXT_SWITCH_1_SYNCHRONOUS_RISCV_HPP
   6:src/../h/riscv.hpp **** #define OS1_VEZBE07_RISCV_CONTEXT_SWITCH_1_SYNCHRONOUS_RISCV_HPP
   7:src/../h/riscv.hpp **** 
   8:src/../h/riscv.hpp **** #include "../lib/hw.h"
   9:src/../h/riscv.hpp **** 
  10:src/../h/riscv.hpp **** class Riscv
  11:src/../h/riscv.hpp **** {
  12:src/../h/riscv.hpp **** public:
  13:src/../h/riscv.hpp **** 
  14:src/../h/riscv.hpp ****     // pop sstatus.spp and sstatus.spie bits (has to be a non inline function)
  15:src/../h/riscv.hpp ****     static void popSppSpie();
  16:src/../h/riscv.hpp **** 
  17:src/../h/riscv.hpp ****     // push x3..x31 registers on stack
  18:src/../h/riscv.hpp ****     static void pushRegisters();
  19:src/../h/riscv.hpp **** 
  20:src/../h/riscv.hpp ****     // pop x3..x31 registers from stack
  21:src/../h/riscv.hpp ****     static void popRegisters();
  22:src/../h/riscv.hpp **** 
  23:src/../h/riscv.hpp ****     // read register scause
  24:src/../h/riscv.hpp ****     static uint64 r_scause();
  25:src/../h/riscv.hpp **** 
  26:src/../h/riscv.hpp ****     // write register scause
  27:src/../h/riscv.hpp ****     static void w_scause(uint64 scause);
  28:src/../h/riscv.hpp **** 
GAS LISTING /tmp/cchkHLG8.s 			page 10


  29:src/../h/riscv.hpp ****     // read register sepc
  30:src/../h/riscv.hpp ****     static uint64 r_sepc();
  31:src/../h/riscv.hpp **** 
  32:src/../h/riscv.hpp ****     // write register sepc
  33:src/../h/riscv.hpp ****     static void w_sepc(uint64 sepc);
  34:src/../h/riscv.hpp **** 
  35:src/../h/riscv.hpp ****     // read register stvec
  36:src/../h/riscv.hpp ****     static uint64 r_stvec();
  37:src/../h/riscv.hpp **** 
  38:src/../h/riscv.hpp ****     // write register stvec
  39:src/../h/riscv.hpp ****     static void w_stvec(uint64 stvec);
  40:src/../h/riscv.hpp **** 
  41:src/../h/riscv.hpp ****     // read register stval
  42:src/../h/riscv.hpp ****     static uint64 r_stval();
  43:src/../h/riscv.hpp **** 
  44:src/../h/riscv.hpp ****     // write register stval
  45:src/../h/riscv.hpp ****     static void w_stval(uint64 stval);
  46:src/../h/riscv.hpp **** 
  47:src/../h/riscv.hpp ****     enum BitMaskSip
  48:src/../h/riscv.hpp ****     {
  49:src/../h/riscv.hpp ****         SIP_SSIP = (1 << 1),
  50:src/../h/riscv.hpp ****         SIP_STIP = (1 << 5),
  51:src/../h/riscv.hpp ****         SIP_SEIP = (1 << 9),
  52:src/../h/riscv.hpp ****     };
  53:src/../h/riscv.hpp **** 
  54:src/../h/riscv.hpp ****     // mask set register sip
  55:src/../h/riscv.hpp ****     static void ms_sip(uint64 mask);
  56:src/../h/riscv.hpp **** 
  57:src/../h/riscv.hpp ****     // mask clear register sip
  58:src/../h/riscv.hpp ****     static void mc_sip(uint64 mask);
  59:src/../h/riscv.hpp **** 
  60:src/../h/riscv.hpp ****     // read register sip
  61:src/../h/riscv.hpp ****     static uint64 r_sip();
  62:src/../h/riscv.hpp **** 
  63:src/../h/riscv.hpp ****     // write register sip
  64:src/../h/riscv.hpp ****     static void w_sip(uint64 sip);
  65:src/../h/riscv.hpp **** 
  66:src/../h/riscv.hpp ****     enum BitMaskSstatus
  67:src/../h/riscv.hpp ****     {
  68:src/../h/riscv.hpp ****         SSTATUS_SIE = (1 << 1),
  69:src/../h/riscv.hpp ****         SSTATUS_SPIE = (1 << 5),
  70:src/../h/riscv.hpp ****         SSTATUS_SPP = (1 << 8),
  71:src/../h/riscv.hpp ****     };
  72:src/../h/riscv.hpp **** 
  73:src/../h/riscv.hpp ****     // mask set register sstatus
  74:src/../h/riscv.hpp ****     static void ms_sstatus(uint64 mask);
  75:src/../h/riscv.hpp **** 
  76:src/../h/riscv.hpp ****     // mask clear register sstatus
  77:src/../h/riscv.hpp ****     static void mc_sstatus(uint64 mask);
  78:src/../h/riscv.hpp **** 
  79:src/../h/riscv.hpp ****     // read register sstatus
  80:src/../h/riscv.hpp ****     static uint64 r_sstatus();
  81:src/../h/riscv.hpp **** 
  82:src/../h/riscv.hpp ****     // write register sstatus
  83:src/../h/riscv.hpp ****     static void w_sstatus(uint64 sstatus);
  84:src/../h/riscv.hpp **** 
  85:src/../h/riscv.hpp ****     //supervisor trap
GAS LISTING /tmp/cchkHLG8.s 			page 11


  86:src/../h/riscv.hpp ****     static void supervisorTrap();
  87:src/../h/riscv.hpp **** 
  88:src/../h/riscv.hpp **** private:
  89:src/../h/riscv.hpp ****     //supervisor trap handler
  90:src/../h/riscv.hpp ****     static void handleSupervisorTrap();
  91:src/../h/riscv.hpp **** 
  92:src/../h/riscv.hpp **** };
  93:src/../h/riscv.hpp **** 
  94:src/../h/riscv.hpp **** inline uint64 Riscv::r_scause()
  95:src/../h/riscv.hpp **** {
  96:src/../h/riscv.hpp ****     uint64 volatile scause;
  97:src/../h/riscv.hpp ****     __asm__ volatile ("csrr %[scause], scause" : [scause] "=r"(scause));
  98:src/../h/riscv.hpp ****     return scause;
  99:src/../h/riscv.hpp **** }
 100:src/../h/riscv.hpp **** 
 101:src/../h/riscv.hpp **** inline void Riscv::w_scause(uint64 scause)
 102:src/../h/riscv.hpp **** {
 103:src/../h/riscv.hpp ****     __asm__ volatile ("csrw scause, %[scause]" : : [scause] "r"(scause));
 104:src/../h/riscv.hpp **** }
 105:src/../h/riscv.hpp **** 
 106:src/../h/riscv.hpp **** inline uint64 Riscv::r_sepc()
 107:src/../h/riscv.hpp **** {
 108:src/../h/riscv.hpp ****     uint64 volatile sepc;
 109:src/../h/riscv.hpp ****     __asm__ volatile ("csrr %[sepc], sepc" : [sepc] "=r"(sepc));
 110:src/../h/riscv.hpp ****     return sepc;
 111:src/../h/riscv.hpp **** }
 112:src/../h/riscv.hpp **** 
 113:src/../h/riscv.hpp **** inline void Riscv::w_sepc(uint64 sepc)
 114:src/../h/riscv.hpp **** {
 115:src/../h/riscv.hpp ****     __asm__ volatile ("csrw sepc, %[sepc]" : : [sepc] "r"(sepc));
 116:src/../h/riscv.hpp **** }
 117:src/../h/riscv.hpp **** 
 118:src/../h/riscv.hpp **** inline uint64 Riscv::r_stvec()
 119:src/../h/riscv.hpp **** {
 120:src/../h/riscv.hpp ****     uint64 volatile stvec;
 121:src/../h/riscv.hpp ****     __asm__ volatile ("csrr %[stvec], stvec" : [stvec] "=r"(stvec));
 122:src/../h/riscv.hpp ****     return stvec;
 123:src/../h/riscv.hpp **** }
 124:src/../h/riscv.hpp **** 
 125:src/../h/riscv.hpp **** inline void Riscv::w_stvec(uint64 stvec)
 126:src/../h/riscv.hpp **** {
 127:src/../h/riscv.hpp ****     __asm__ volatile ("csrw stvec, %[stvec]" : : [stvec] "r"(stvec));
 348              		.loc 3 127 5 is_stmt 1
 349              		.loc 3 127 69 is_stmt 0
 350              	#APP
 351              	# 127 "src/../h/riscv.hpp" 1
 128              	}
 352              		csrw stvec, a5
 353              	# 0 "" 2
 354              	.LVL36:
 355              	#NO_APP
 356              	.LBE31:
 357              	.LBE30:
  23:src/main.cpp  ****     Riscv::ms_sstatus(Riscv::SSTATUS_SIE); // supervisor interrupt enable
 358              		.loc 1 23 5 is_stmt 1
 359              	.LBB32:
 360              	.LBB33:
GAS LISTING /tmp/cchkHLG8.s 			page 12


 129:src/../h/riscv.hpp **** 
 130:src/../h/riscv.hpp **** inline uint64 Riscv::r_stval()
 131:src/../h/riscv.hpp **** {
 132:src/../h/riscv.hpp ****     uint64 volatile stval;
 133:src/../h/riscv.hpp ****     __asm__ volatile ("csrr %[stval], stval" : [stval] "=r"(stval));
 134:src/../h/riscv.hpp ****     return stval;
 135:src/../h/riscv.hpp **** }
 136:src/../h/riscv.hpp **** 
 137:src/../h/riscv.hpp **** inline void Riscv::w_stval(uint64 stval)
 138:src/../h/riscv.hpp **** {
 139:src/../h/riscv.hpp ****     __asm__ volatile ("csrw stval, %[stval]" : : [stval] "r"(stval));
 140:src/../h/riscv.hpp **** }
 141:src/../h/riscv.hpp **** 
 142:src/../h/riscv.hpp **** inline void Riscv::ms_sip(uint64 mask)
 143:src/../h/riscv.hpp **** {
 144:src/../h/riscv.hpp ****     __asm__ volatile ("csrs sip, %[mask]" : : [mask] "r"(mask));
 145:src/../h/riscv.hpp **** }
 146:src/../h/riscv.hpp **** 
 147:src/../h/riscv.hpp **** inline void Riscv::mc_sip(uint64 mask)
 148:src/../h/riscv.hpp **** {
 149:src/../h/riscv.hpp ****     __asm__ volatile ("csrc sip, %[mask]" : : [mask] "r"(mask));
 150:src/../h/riscv.hpp **** }
 151:src/../h/riscv.hpp **** 
 152:src/../h/riscv.hpp **** inline uint64 Riscv::r_sip()
 153:src/../h/riscv.hpp **** {
 154:src/../h/riscv.hpp ****     uint64 volatile sip;
 155:src/../h/riscv.hpp ****     __asm__ volatile ("csrr %[sip], sip" : [sip] "=r"(sip));
 156:src/../h/riscv.hpp ****     return sip;
 157:src/../h/riscv.hpp **** }
 158:src/../h/riscv.hpp **** 
 159:src/../h/riscv.hpp **** inline void Riscv::w_sip(uint64 sip)
 160:src/../h/riscv.hpp **** {
 161:src/../h/riscv.hpp ****     __asm__ volatile ("csrw sip, %[sip]" : : [sip] "r"(sip));
 162:src/../h/riscv.hpp **** }
 163:src/../h/riscv.hpp **** 
 164:src/../h/riscv.hpp **** inline void Riscv::ms_sstatus(uint64 mask)
 165:src/../h/riscv.hpp **** {
 166:src/../h/riscv.hpp ****     __asm__ volatile ("csrs sstatus, %[mask]" : : [mask] "r"(mask));
 361              		.loc 3 166 5
 362              		.loc 3 166 68 is_stmt 0
 363 01e8 93072000 		li	a5,2
 364              	#APP
 365              	# 166 "src/../h/riscv.hpp" 1
 167              	}
 366              		csrs sstatus, a5
 367              	# 0 "" 2
 368              	.LVL37:
 369              	#NO_APP
 370              	.LBE33:
 371              	.LBE32:
  24:src/main.cpp  **** 
  25:src/main.cpp  ****     printString("Started \n");
 372              		.loc 1 25 5 is_stmt 1
 373              		.loc 1 25 16 is_stmt 0
 374 01f0 17050000 		lla	a0,.LC5
 374      13050500 
 375              	.LVL38:
GAS LISTING /tmp/cchkHLG8.s 			page 13


 376 01f8 97000000 		call	_Z11printStringPKc@plt
 376      E7800000 
 377              	.LVL39:
  26:src/main.cpp  **** 
  27:src/main.cpp  ****     //TCB *userMainThread = TCB::createThread(userMain, nullptr, nullptr);
  28:src/main.cpp  ****     thread_t userMainThread;
 378              		.loc 1 28 5 is_stmt 1
  29:src/main.cpp  ****     thread_create(&userMainThread, userMainWrapper, nullptr);
 379              		.loc 1 29 5
 380              		.loc 1 29 18 is_stmt 0
 381 0200 13060000 		li	a2,0
 382 0204 97050000 		lla	a1,_Z15userMainWrapperPv
 382      93850500 
 383 020c 130584FD 		addi	a0,s0,-40
 384 0210 97000000 		call	_Z13thread_createPP3TCBPFvPvES2_@plt
 384      E7800000 
 385              	.LVL40:
  30:src/main.cpp  ****     thread_start(userMainThread);
 386              		.loc 1 30 5 is_stmt 1
 387              		.loc 1 30 17 is_stmt 0
 388 0218 033584FD 		ld	a0,-40(s0)
 389 021c 97000000 		call	_Z12thread_startP3TCB@plt
 389      E7800000 
 390              	.LVL41:
 391              	.L21:
  31:src/main.cpp  **** 
  32:src/main.cpp  **** 
  33:src/main.cpp  ****     while (!(userMainThread->isFinished() )) {
 392              		.loc 1 33 5 is_stmt 1
 393              		.loc 1 33 12
 394              		.loc 1 33 40 is_stmt 0
 395 0224 833484FD 		ld	s1,-40(s0)
 396              	.LVL42:
 397              	.LBB34:
 398              	.LBB35:
 399              		.file 4 "src/../h/tcb.hpp"
   1:src/../h/tcb.hpp **** //
   2:src/../h/tcb.hpp **** // Created by os on 8/15/22.
   3:src/../h/tcb.hpp **** //
   4:src/../h/tcb.hpp **** 
   5:src/../h/tcb.hpp **** #ifndef PROJECT_BASE_TCB_HPP
   6:src/../h/tcb.hpp **** #define PROJECT_BASE_TCB_HPP
   7:src/../h/tcb.hpp **** 
   8:src/../h/tcb.hpp **** #include "../lib/hw.h"
   9:src/../h/tcb.hpp **** #include "scheduler.hpp"
  10:src/../h/tcb.hpp **** #include "riscv.hpp"
  11:src/../h/tcb.hpp **** #include "print.hpp"
  12:src/../h/tcb.hpp **** 
  13:src/../h/tcb.hpp **** //#include "print.hpp"
  14:src/../h/tcb.hpp **** 
  15:src/../h/tcb.hpp **** //Thread Control Block
  16:src/../h/tcb.hpp **** class TCB
  17:src/../h/tcb.hpp **** {
  18:src/../h/tcb.hpp **** public:
  19:src/../h/tcb.hpp **** 
  20:src/../h/tcb.hpp ****     enum Status {
  21:src/../h/tcb.hpp ****         CREATED,
GAS LISTING /tmp/cchkHLG8.s 			page 14


  22:src/../h/tcb.hpp ****         READY,
  23:src/../h/tcb.hpp ****         RUNNING,
  24:src/../h/tcb.hpp ****         FINISHED,
  25:src/../h/tcb.hpp ****         BLOCKED
  26:src/../h/tcb.hpp ****     };
  27:src/../h/tcb.hpp **** 
  28:src/../h/tcb.hpp ****     ~TCB() { delete[] stack; }
  29:src/../h/tcb.hpp **** 
  30:src/../h/tcb.hpp ****     bool isFinished() const { return status == FINISHED; }
 400              		.loc 4 30 31 is_stmt 1
 401              		.loc 4 30 38 is_stmt 0
 402 0228 03A70403 		lw	a4,48(s1)
 403              	.LVL43:
 404              	.LBE35:
 405              	.LBE34:
 406              		.loc 1 33 12
 407 022c 93073000 		li	a5,3
 408 0230 6308F700 		beq	a4,a5,.L20
  34:src/main.cpp  ****        TCB::yield();
 409              		.loc 1 34 8 is_stmt 1
 410              		.loc 1 34 18 is_stmt 0
 411 0234 97000000 		call	_ZN3TCB5yieldEv@plt
 411      E7800000 
 412              	.LVL44:
 413 023c 6FF09FFE 		j	.L21
 414              	.L20:
  35:src/main.cpp  ****     }
  36:src/main.cpp  **** 
  37:src/main.cpp  ****     delete userMainThread;
 415              		.loc 1 37 5 is_stmt 1
 416              		.loc 1 37 26 is_stmt 0
 417 0240 63800402 		beqz	s1,.L22
 418              	.LVL45:
 419              	.LBB36:
 420              	.LBB37:
  28:src/../h/tcb.hpp **** 
 421              		.loc 4 28 14 is_stmt 1
  28:src/../h/tcb.hpp **** 
 422              		.loc 4 28 23 is_stmt 0
 423 0244 03B58400 		ld	a0,8(s1)
  28:src/../h/tcb.hpp **** 
 424              		.loc 4 28 28
 425 0248 63060500 		beqz	a0,.L23
  28:src/../h/tcb.hpp **** 
 426              		.loc 4 28 23
 427 024c 97000000 		call	_ZdaPv@plt
 427      E7800000 
 428              	.LVL46:
 429              	.L23:
 430              	.LBE37:
 431              	.LBE36:
 432              		.loc 1 37 12
 433 0254 13850400 		mv	a0,s1
 434 0258 97000000 		call	_ZdlPv@plt
 434      E7800000 
 435              	.LVL47:
 436              	.L22:
GAS LISTING /tmp/cchkHLG8.s 			page 15


  38:src/main.cpp  ****     delete mainThread;
 437              		.loc 1 38 5 is_stmt 1
 438              		.loc 1 38 22 is_stmt 0
 439 0260 63000902 		beqz	s2,.L24
 440              	.LVL48:
 441              	.LBB38:
 442              	.LBB39:
  28:src/../h/tcb.hpp **** 
 443              		.loc 4 28 14 is_stmt 1
  28:src/../h/tcb.hpp **** 
 444              		.loc 4 28 23 is_stmt 0
 445 0264 03358900 		ld	a0,8(s2)
  28:src/../h/tcb.hpp **** 
 446              		.loc 4 28 28
 447 0268 63060500 		beqz	a0,.L25
  28:src/../h/tcb.hpp **** 
 448              		.loc 4 28 23
 449 026c 97000000 		call	_ZdaPv@plt
 449      E7800000 
 450              	.LVL49:
 451              	.L25:
 452              	.LBE39:
 453              	.LBE38:
 454              		.loc 1 38 12
 455 0274 13050900 		mv	a0,s2
 456 0278 97000000 		call	_ZdlPv@plt
 456      E7800000 
 457              	.LVL50:
 458              	.L24:
  39:src/main.cpp  **** 
  40:src/main.cpp  ****     printString("Finished! \n" );
 459              		.loc 1 40 5 is_stmt 1
 460              		.loc 1 40 16 is_stmt 0
 461 0280 17050000 		lla	a0,.LC6
 461      13050500 
 462 0288 97000000 		call	_Z11printStringPKc@plt
 462      E7800000 
 463              	.LVL51:
  41:src/main.cpp  **** 
  42:src/main.cpp  ****     return 0;
 464              		.loc 1 42 5 is_stmt 1
  43:src/main.cpp  **** }...
 465              		.loc 1 43 1 is_stmt 0
 466 0290 13050000 		li	a0,0
 467 0294 83308102 		ld	ra,40(sp)
 468              		.cfi_restore 1
 469 0298 03340102 		ld	s0,32(sp)
 470              		.cfi_restore 8
 471              		.cfi_def_cfa 2, 48
 472 029c 83348101 		ld	s1,24(sp)
 473              		.cfi_restore 9
 474 02a0 03390101 		ld	s2,16(sp)
 475              		.cfi_restore 18
 476              	.LVL52:
 477 02a4 13010103 		addi	sp,sp,48
 478              		.cfi_def_cfa_offset 0
 479 02a8 67800000 		jr	ra
GAS LISTING /tmp/cchkHLG8.s 			page 16


 480              		.cfi_endproc
 481              	.LFE52:
 483              	.Letext0:
 484              		.file 5 "src/../h/../lib/hw.h"
 485              		.file 6 "src/../h/syscall_c.hpp"
 486              		.file 7 "src/../h/print.hpp"
 487              		.file 8 "src/../test/../h/syscall_cpp.hpp"
 488              		.file 9 "src/../test/userMain.hpp"
GAS LISTING /tmp/cchkHLG8.s 			page 17


DEFINED SYMBOLS
                            *ABS*:0000000000000000 main.cpp
     /tmp/cchkHLG8.s:9      .text:0000000000000000 _Z15userMainWrapperPv
     /tmp/cchkHLG8.s:13     .text:0000000000000000 .L0 
     /tmp/cchkHLG8.s:15     .text:0000000000000000 .L0 
     /tmp/cchkHLG8.s:16     .text:0000000000000004 .L0 
     /tmp/cchkHLG8.s:19     .text:000000000000000c .L0 
     /tmp/cchkHLG8.s:20     .text:000000000000000c .L0 
     /tmp/cchkHLG8.s:22     .text:0000000000000010 .L0 
     /tmp/cchkHLG8.s:24     .text:0000000000000010 .L0 
     /tmp/cchkHLG8.s:25     .text:0000000000000010 .L0 
     /tmp/cchkHLG8.s:28     .text:0000000000000018 .L0 
     /tmp/cchkHLG8.s:29     .text:000000000000001c .L0 
     /tmp/cchkHLG8.s:31     .text:0000000000000020 .L0 
     /tmp/cchkHLG8.s:32     .text:0000000000000020 .L0 
     /tmp/cchkHLG8.s:34     .text:0000000000000024 .L0 
     /tmp/cchkHLG8.s:36     .text:0000000000000028 .L0 
     /tmp/cchkHLG8.s:53     .text:0000000000000028 _ZN7WorkerA9testBodyAEPv
     /tmp/cchkHLG8.s:57     .text:0000000000000028 .L0 
     /tmp/cchkHLG8.s:59     .text:0000000000000028 .L0 
     /tmp/cchkHLG8.s:60     .text:000000000000002c .L0 
     /tmp/cchkHLG8.s:65     .text:000000000000003c .L0 
     /tmp/cchkHLG8.s:66     .text:000000000000003c .L0 
     /tmp/cchkHLG8.s:67     .text:000000000000003c .L0 
     /tmp/cchkHLG8.s:68     .text:000000000000003c .L0 
     /tmp/cchkHLG8.s:70     .text:0000000000000040 .L0 
     /tmp/cchkHLG8.s:74     .text:0000000000000040 .L0 
     /tmp/cchkHLG8.s:75     .text:0000000000000040 .L0 
     /tmp/cchkHLG8.s:83     .text:0000000000000048 .L0 
     /tmp/cchkHLG8.s:84     .text:0000000000000048 .L0 
     /tmp/cchkHLG8.s:88     .text:0000000000000050 .L0 
     /tmp/cchkHLG8.s:92     .text:0000000000000054 .L0 
     /tmp/cchkHLG8.s:98     .text:0000000000000060 .L0 
     /tmp/cchkHLG8.s:102    .text:0000000000000064 .L0 
     /tmp/cchkHLG8.s:106    .text:0000000000000070 .L0 
     /tmp/cchkHLG8.s:116    .text:0000000000000078 .L0 
     /tmp/cchkHLG8.s:120    .text:000000000000007c .L0 
     /tmp/cchkHLG8.s:124    .text:0000000000000084 .L0 
     /tmp/cchkHLG8.s:125    .text:0000000000000084 .L0 
     /tmp/cchkHLG8.s:129    .text:0000000000000094 .L0 
     /tmp/cchkHLG8.s:130    .text:0000000000000094 .L0 
     /tmp/cchkHLG8.s:134    .text:00000000000000a0 .L0 
     /tmp/cchkHLG8.s:135    .text:00000000000000a0 .L0 
     /tmp/cchkHLG8.s:140    .text:00000000000000b0 .L0 
     /tmp/cchkHLG8.s:141    .text:00000000000000b0 .L0 
     /tmp/cchkHLG8.s:149    .text:00000000000000b8 .L0 
     /tmp/cchkHLG8.s:150    .text:00000000000000b8 .L0 
     /tmp/cchkHLG8.s:154    .text:00000000000000c8 .L0 
     /tmp/cchkHLG8.s:155    .text:00000000000000cc .L0 
     /tmp/cchkHLG8.s:157    .text:00000000000000d0 .L0 
     /tmp/cchkHLG8.s:158    .text:00000000000000d0 .L0 
     /tmp/cchkHLG8.s:160    .text:00000000000000d4 .L0 
     /tmp/cchkHLG8.s:162    .text:00000000000000d8 .L0 
     /tmp/cchkHLG8.s:165    .text:00000000000000dc .L0 
     /tmp/cchkHLG8.s:167    .text:00000000000000e0 .L0 
     /tmp/cchkHLG8.s:181    .text:00000000000000e0 _ZN7WorkerB9testBodyBEPv
     /tmp/cchkHLG8.s:184    .text:00000000000000e0 .L0 
GAS LISTING /tmp/cchkHLG8.s 			page 18


     /tmp/cchkHLG8.s:186    .text:00000000000000e0 .L0 
     /tmp/cchkHLG8.s:187    .text:00000000000000e4 .L0 
     /tmp/cchkHLG8.s:192    .text:00000000000000f4 .L0 
     /tmp/cchkHLG8.s:193    .text:00000000000000f4 .L0 
     /tmp/cchkHLG8.s:194    .text:00000000000000f4 .L0 
     /tmp/cchkHLG8.s:195    .text:00000000000000f4 .L0 
     /tmp/cchkHLG8.s:197    .text:00000000000000f8 .L0 
     /tmp/cchkHLG8.s:201    .text:00000000000000f8 .L0 
     /tmp/cchkHLG8.s:202    .text:00000000000000f8 .L0 
     /tmp/cchkHLG8.s:210    .text:0000000000000100 .L0 
     /tmp/cchkHLG8.s:211    .text:0000000000000100 .L0 
     /tmp/cchkHLG8.s:215    .text:0000000000000108 .L0 
     /tmp/cchkHLG8.s:219    .text:000000000000010c .L0 
     /tmp/cchkHLG8.s:225    .text:0000000000000118 .L0 
     /tmp/cchkHLG8.s:229    .text:000000000000011c .L0 
     /tmp/cchkHLG8.s:233    .text:0000000000000128 .L0 
     /tmp/cchkHLG8.s:243    .text:0000000000000130 .L0 
     /tmp/cchkHLG8.s:247    .text:0000000000000134 .L0 
     /tmp/cchkHLG8.s:251    .text:000000000000013c .L0 
     /tmp/cchkHLG8.s:252    .text:000000000000013c .L0 
     /tmp/cchkHLG8.s:256    .text:000000000000014c .L0 
     /tmp/cchkHLG8.s:257    .text:000000000000014c .L0 
     /tmp/cchkHLG8.s:261    .text:0000000000000158 .L0 
     /tmp/cchkHLG8.s:262    .text:0000000000000158 .L0 
     /tmp/cchkHLG8.s:267    .text:0000000000000168 .L0 
     /tmp/cchkHLG8.s:268    .text:0000000000000168 .L0 
     /tmp/cchkHLG8.s:276    .text:0000000000000170 .L0 
     /tmp/cchkHLG8.s:277    .text:0000000000000170 .L0 
     /tmp/cchkHLG8.s:281    .text:0000000000000180 .L0 
     /tmp/cchkHLG8.s:282    .text:0000000000000180 .L0 
     /tmp/cchkHLG8.s:285    .text:0000000000000188 .L0 
     /tmp/cchkHLG8.s:286    .text:000000000000018c .L0 
     /tmp/cchkHLG8.s:288    .text:0000000000000190 .L0 
     /tmp/cchkHLG8.s:289    .text:0000000000000190 .L0 
     /tmp/cchkHLG8.s:291    .text:0000000000000194 .L0 
     /tmp/cchkHLG8.s:293    .text:0000000000000198 .L0 
     /tmp/cchkHLG8.s:296    .text:000000000000019c .L0 
     /tmp/cchkHLG8.s:298    .text:00000000000001a0 .L0 
     /tmp/cchkHLG8.s:312    .text:00000000000001a0 main
     /tmp/cchkHLG8.s:315    .text:00000000000001a0 .L0 
     /tmp/cchkHLG8.s:316    .text:00000000000001a0 .L0 
     /tmp/cchkHLG8.s:317    .text:00000000000001a4 .L0 
     /tmp/cchkHLG8.s:322    .text:00000000000001b4 .L0 
     /tmp/cchkHLG8.s:323    .text:00000000000001b4 .L0 
     /tmp/cchkHLG8.s:324    .text:00000000000001b4 .L0 
     /tmp/cchkHLG8.s:325    .text:00000000000001b4 .L0 
     /tmp/cchkHLG8.s:327    .text:00000000000001b8 .L0 
     /tmp/cchkHLG8.s:329    .text:00000000000001b8 .L0 
     /tmp/cchkHLG8.s:330    .text:00000000000001b8 .L0 
     /tmp/cchkHLG8.s:338    .text:00000000000001d0 .L0 
     /tmp/cchkHLG8.s:339    .text:00000000000001d0 .L0 
     /tmp/cchkHLG8.s:342    .text:00000000000001dc .L0 
     /tmp/cchkHLG8.s:343    .text:00000000000001dc .L0 
     /tmp/cchkHLG8.s:349    .text:00000000000001e4 .L0 
  src/../h/riscv.hpp:127    .text:00000000000001e4 .L0 
     /tmp/cchkHLG8.s:361    .text:00000000000001e8 .L0 
     /tmp/cchkHLG8.s:362    .text:00000000000001e8 .L0 
GAS LISTING /tmp/cchkHLG8.s 			page 19


     /tmp/cchkHLG8.s:363    .text:00000000000001e8 .L0 
     /tmp/cchkHLG8.s:373    .text:00000000000001f0 .L0 
     /tmp/cchkHLG8.s:374    .text:00000000000001f0 .L0 
     /tmp/cchkHLG8.s:379    .text:0000000000000200 .L0 
     /tmp/cchkHLG8.s:380    .text:0000000000000200 .L0 
     /tmp/cchkHLG8.s:381    .text:0000000000000200 .L0 
     /tmp/cchkHLG8.s:387    .text:0000000000000218 .L0 
     /tmp/cchkHLG8.s:388    .text:0000000000000218 .L0 
     /tmp/cchkHLG8.s:393    .text:0000000000000224 .L0 
     /tmp/cchkHLG8.s:394    .text:0000000000000224 .L0 
     /tmp/cchkHLG8.s:395    .text:0000000000000224 .L0 
     /tmp/cchkHLG8.s:401    .text:0000000000000228 .L0 
     /tmp/cchkHLG8.s:402    .text:0000000000000228 .L0 
     /tmp/cchkHLG8.s:407    .text:000000000000022c .L0 
     /tmp/cchkHLG8.s:410    .text:0000000000000234 .L0 
     /tmp/cchkHLG8.s:411    .text:0000000000000234 .L0 
     /tmp/cchkHLG8.s:416    .text:0000000000000240 .L0 
     /tmp/cchkHLG8.s:417    .text:0000000000000240 .L0 
     /tmp/cchkHLG8.s:422    .text:0000000000000244 .L0 
     /tmp/cchkHLG8.s:423    .text:0000000000000244 .L0 
     /tmp/cchkHLG8.s:425    .text:0000000000000248 .L0 
     /tmp/cchkHLG8.s:427    .text:000000000000024c .L0 
     /tmp/cchkHLG8.s:433    .text:0000000000000254 .L0 
     /tmp/cchkHLG8.s:438    .text:0000000000000260 .L0 
     /tmp/cchkHLG8.s:439    .text:0000000000000260 .L0 
     /tmp/cchkHLG8.s:444    .text:0000000000000264 .L0 
     /tmp/cchkHLG8.s:445    .text:0000000000000264 .L0 
     /tmp/cchkHLG8.s:447    .text:0000000000000268 .L0 
     /tmp/cchkHLG8.s:449    .text:000000000000026c .L0 
     /tmp/cchkHLG8.s:455    .text:0000000000000274 .L0 
     /tmp/cchkHLG8.s:460    .text:0000000000000280 .L0 
     /tmp/cchkHLG8.s:461    .text:0000000000000280 .L0 
     /tmp/cchkHLG8.s:465    .text:0000000000000290 .L0 
     /tmp/cchkHLG8.s:466    .text:0000000000000290 .L0 
     /tmp/cchkHLG8.s:468    .text:0000000000000298 .L0 
     /tmp/cchkHLG8.s:470    .text:000000000000029c .L0 
     /tmp/cchkHLG8.s:471    .text:000000000000029c .L0 
     /tmp/cchkHLG8.s:473    .text:00000000000002a0 .L0 
     /tmp/cchkHLG8.s:475    .text:00000000000002a4 .L0 
     /tmp/cchkHLG8.s:478    .text:00000000000002a8 .L0 
     /tmp/cchkHLG8.s:480    .text:00000000000002ac .L0 
     /tmp/cchkHLG8.s:489    .text:00000000000002ac .L0 
     /tmp/cchkHLG8.s:41     .rodata.str1.8:0000000000000000 .LC0
     /tmp/cchkHLG8.s:125    .text:0000000000000084 .L0 
     /tmp/cchkHLG8.s:44     .rodata.str1.8:0000000000000008 .LC1
     /tmp/cchkHLG8.s:135    .text:00000000000000a0 .L0 
     /tmp/cchkHLG8.s:47     .rodata.str1.8:0000000000000010 .LC2
     /tmp/cchkHLG8.s:150    .text:00000000000000b8 .L0 
     /tmp/cchkHLG8.s:172    .rodata.str1.8:0000000000000020 .LC3
     /tmp/cchkHLG8.s:252    .text:000000000000013c .L0 
     /tmp/cchkHLG8.s:262    .text:0000000000000158 .L0 
     /tmp/cchkHLG8.s:175    .rodata.str1.8:0000000000000028 .LC4
     /tmp/cchkHLG8.s:277    .text:0000000000000170 .L0 
     /tmp/cchkHLG8.s:339    .text:00000000000001d0 .L0 
     /tmp/cchkHLG8.s:343    .text:00000000000001dc .L0 
     /tmp/cchkHLG8.s:303    .rodata.str1.8:0000000000000038 .LC5
     /tmp/cchkHLG8.s:374    .text:00000000000001f0 .L0 
GAS LISTING /tmp/cchkHLG8.s 			page 20


     /tmp/cchkHLG8.s:382    .text:0000000000000204 .L0 
     /tmp/cchkHLG8.s:306    .rodata.str1.8:0000000000000048 .LC6
     /tmp/cchkHLG8.s:461    .text:0000000000000280 .L0 
     /tmp/cchkHLG8.s:118    .text:000000000000007c .L9
     /tmp/cchkHLG8.s:110    .text:0000000000000078 .L5
     /tmp/cchkHLG8.s:78     .text:0000000000000048 .L6
     /tmp/cchkHLG8.s:99     .text:0000000000000064 .L7
     /tmp/cchkHLG8.s:144    .text:00000000000000b8 .L4
     /tmp/cchkHLG8.s:90     .text:0000000000000054 .L8
     /tmp/cchkHLG8.s:245    .text:0000000000000134 .L17
     /tmp/cchkHLG8.s:237    .text:0000000000000130 .L13
     /tmp/cchkHLG8.s:205    .text:0000000000000100 .L14
     /tmp/cchkHLG8.s:226    .text:000000000000011c .L15
     /tmp/cchkHLG8.s:271    .text:0000000000000170 .L12
     /tmp/cchkHLG8.s:217    .text:000000000000010c .L16
     /tmp/cchkHLG8.s:414    .text:0000000000000240 .L20
     /tmp/cchkHLG8.s:391    .text:0000000000000224 .L21
     /tmp/cchkHLG8.s:436    .text:0000000000000260 .L22
     /tmp/cchkHLG8.s:429    .text:0000000000000254 .L23
     /tmp/cchkHLG8.s:458    .text:0000000000000280 .L24
     /tmp/cchkHLG8.s:451    .text:0000000000000274 .L25
     /tmp/cchkHLG8.s:1821   .debug_abbrev:0000000000000000 .Ldebug_abbrev0
     /tmp/cchkHLG8.s:3341   .debug_str:0000000000000698 .LASF137
     /tmp/cchkHLG8.s:3171   .debug_str:00000000000001d0 .LASF138
     /tmp/cchkHLG8.s:3179   .debug_str:00000000000001f7 .LASF139
     /tmp/cchkHLG8.s:5      .text:0000000000000000 .Ltext0
     /tmp/cchkHLG8.s:483    .text:00000000000002ac .Letext0
     /tmp/cchkHLG8.s:3107   .debug_line:0000000000000000 .Ldebug_line0
     /tmp/cchkHLG8.s:3195   .debug_str:0000000000000288 .LASF0
     /tmp/cchkHLG8.s:3215   .debug_str:0000000000000334 .LASF1
     /tmp/cchkHLG8.s:3289   .debug_str:0000000000000537 .LASF2
     /tmp/cchkHLG8.s:3295   .debug_str:0000000000000568 .LASF4
     /tmp/cchkHLG8.s:3205   .debug_str:00000000000002ce .LASF3
     /tmp/cchkHLG8.s:3121   .debug_str:0000000000000065 .LASF5
     /tmp/cchkHLG8.s:3259   .debug_str:000000000000047b .LASF6
     /tmp/cchkHLG8.s:3209   .debug_str:0000000000000302 .LASF7
     /tmp/cchkHLG8.s:3177   .debug_str:00000000000001e7 .LASF8
     /tmp/cchkHLG8.s:3183   .debug_str:0000000000000231 .LASF9
     /tmp/cchkHLG8.s:3139   .debug_str:00000000000000e0 .LASF10
     /tmp/cchkHLG8.s:3169   .debug_str:00000000000001c1 .LASF11
     /tmp/cchkHLG8.s:3145   .debug_str:0000000000000115 .LASF12
     /tmp/cchkHLG8.s:3137   .debug_str:00000000000000d0 .LASF13
     /tmp/cchkHLG8.s:3325   .debug_str:0000000000000640 .LASF14
     /tmp/cchkHLG8.s:3163   .debug_str:0000000000000184 .LASF15
     /tmp/cchkHLG8.s:3313   .debug_str:00000000000005d8 .LASF16
     /tmp/cchkHLG8.s:3397   .debug_str:00000000000008e7 .LASF48
     /tmp/cchkHLG8.s:3269   .debug_str:00000000000004c6 .LASF17
     /tmp/cchkHLG8.s:3333   .debug_str:0000000000000678 .LASF18
     /tmp/cchkHLG8.s:3309   .debug_str:00000000000005bd .LASF19
     /tmp/cchkHLG8.s:3133   .debug_str:00000000000000b9 .LASF20
     /tmp/cchkHLG8.s:3229   .debug_str:0000000000000397 .LASF21
     /tmp/cchkHLG8.s:3329   .debug_str:0000000000000665 .LASF140
     /tmp/cchkHLG8.s:3297   .debug_str:000000000000056f .LASF22
     /tmp/cchkHLG8.s:3117   .debug_str:000000000000004f .LASF24
     /tmp/cchkHLG8.s:3331   .debug_str:000000000000066d .LASF26
     /tmp/cchkHLG8.s:3241   .debug_str:00000000000003f0 .LASF28
     /tmp/cchkHLG8.s:3131   .debug_str:00000000000000ad .LASF23
GAS LISTING /tmp/cchkHLG8.s 			page 21


     /tmp/cchkHLG8.s:3355   .debug_str:00000000000007b9 .LASF25
     /tmp/cchkHLG8.s:3239   .debug_str:00000000000003e9 .LASF27
     /tmp/cchkHLG8.s:3127   .debug_str:000000000000008c .LASF29
     /tmp/cchkHLG8.s:3219   .debug_str:000000000000034d .LASF30
     /tmp/cchkHLG8.s:3365   .debug_str:0000000000000808 .LASF31
     /tmp/cchkHLG8.s:3323   .debug_str:0000000000000633 .LASF32
     /tmp/cchkHLG8.s:3385   .debug_str:0000000000000876 .LASF33
     /tmp/cchkHLG8.s:3257   .debug_str:0000000000000476 .LASF141
     /tmp/cchkHLG8.s:3217   .debug_str:0000000000000347 .LASF53
     /tmp/cchkHLG8.s:3343   .debug_str:000000000000075c .LASF55
     /tmp/cchkHLG8.s:3399   .debug_str:00000000000008ee .LASF34
     /tmp/cchkHLG8.s:3379   .debug_str:0000000000000856 .LASF35
     /tmp/cchkHLG8.s:3337   .debug_str:0000000000000683 .LASF142
     /tmp/cchkHLG8.s:3315   .debug_str:00000000000005ee .LASF143
     /tmp/cchkHLG8.s:3111   .debug_str:0000000000000012 .LASF36
     /tmp/cchkHLG8.s:3405   .debug_str:0000000000000904 .LASF37
     /tmp/cchkHLG8.s:3351   .debug_str:000000000000079c .LASF38
     /tmp/cchkHLG8.s:3347   .debug_str:000000000000077c .LASF39
     /tmp/cchkHLG8.s:3371   .debug_str:0000000000000835 .LASF40
     /tmp/cchkHLG8.s:3151   .debug_str:0000000000000139 .LASF144
     /tmp/cchkHLG8.s:3115   .debug_str:0000000000000027 .LASF145
     /tmp/cchkHLG8.s:3159   .debug_str:0000000000000175 .LASF41
     /tmp/cchkHLG8.s:3143   .debug_str:0000000000000102 .LASF43
     /tmp/cchkHLG8.s:3305   .debug_str:000000000000059c .LASF146
     /tmp/cchkHLG8.s:3135   .debug_str:00000000000000c2 .LASF42
     /tmp/cchkHLG8.s:3221   .debug_str:000000000000035a .LASF44
     /tmp/cchkHLG8.s:3293   .debug_str:000000000000055d .LASF45
     /tmp/cchkHLG8.s:3391   .debug_str:00000000000008ba .LASF46
     /tmp/cchkHLG8.s:3381   .debug_str:0000000000000866 .LASF47
     /tmp/cchkHLG8.s:3367   .debug_str:0000000000000821 .LASF49
     /tmp/cchkHLG8.s:3167   .debug_str:00000000000001b5 .LASF50
     /tmp/cchkHLG8.s:3339   .debug_str:000000000000068b .LASF51
     /tmp/cchkHLG8.s:3155   .debug_str:0000000000000157 .LASF52
     /tmp/cchkHLG8.s:3187   .debug_str:0000000000000246 .LASF54
     /tmp/cchkHLG8.s:3191   .debug_str:0000000000000263 .LASF56
     /tmp/cchkHLG8.s:3303   .debug_str:000000000000058e .LASF57
     /tmp/cchkHLG8.s:3165   .debug_str:000000000000019a .LASF58
     /tmp/cchkHLG8.s:3197   .debug_str:0000000000000295 .LASF59
     /tmp/cchkHLG8.s:3387   .debug_str:0000000000000898 .LASF60
     /tmp/cchkHLG8.s:3361   .debug_str:00000000000007f1 .LASF62
     /tmp/cchkHLG8.s:3353   .debug_str:00000000000007a4 .LASF64
     /tmp/cchkHLG8.s:3285   .debug_str:0000000000000523 .LASF61
     /tmp/cchkHLG8.s:3253   .debug_str:0000000000000440 .LASF67
     /tmp/cchkHLG8.s:3271   .debug_str:00000000000004ce .LASF63
     /tmp/cchkHLG8.s:3273   .debug_str:00000000000004d5 .LASF65
     /tmp/cchkHLG8.s:3245   .debug_str:000000000000040f .LASF66
     /tmp/cchkHLG8.s:3211   .debug_str:0000000000000315 .LASF68
     /tmp/cchkHLG8.s:3389   .debug_str:00000000000008b2 .LASF69
     /tmp/cchkHLG8.s:3321   .debug_str:000000000000061f .LASF70
     /tmp/cchkHLG8.s:3243   .debug_str:0000000000000407 .LASF71
     /tmp/cchkHLG8.s:3251   .debug_str:000000000000042c .LASF72
     /tmp/cchkHLG8.s:3223   .debug_str:0000000000000373 .LASF73
     /tmp/cchkHLG8.s:3275   .debug_str:00000000000004e8 .LASF74
     /tmp/cchkHLG8.s:3409   .debug_str:0000000000000922 .LASF75
     /tmp/cchkHLG8.s:3201   .debug_str:00000000000002a8 .LASF76
     /tmp/cchkHLG8.s:3319   .debug_str:0000000000000618 .LASF77
     /tmp/cchkHLG8.s:3299   .debug_str:0000000000000574 .LASF78
GAS LISTING /tmp/cchkHLG8.s 			page 22


     /tmp/cchkHLG8.s:3301   .debug_str:0000000000000587 .LASF79
     /tmp/cchkHLG8.s:3141   .debug_str:00000000000000ef .LASF80
     /tmp/cchkHLG8.s:3161   .debug_str:000000000000017e .LASF81
     /tmp/cchkHLG8.s:3189   .debug_str:0000000000000251 .LASF82
     /tmp/cchkHLG8.s:3199   .debug_str:00000000000002a2 .LASF83
     /tmp/cchkHLG8.s:3157   .debug_str:0000000000000163 .LASF84
     /tmp/cchkHLG8.s:3123   .debug_str:000000000000006c .LASF85
     /tmp/cchkHLG8.s:3291   .debug_str:0000000000000545 .LASF86
     /tmp/cchkHLG8.s:3287   .debug_str:000000000000052c .LASF87
     /tmp/cchkHLG8.s:3407   .debug_str:000000000000090a .LASF88
     /tmp/cchkHLG8.s:3383   .debug_str:000000000000086c .LASF89
     /tmp/cchkHLG8.s:3393   .debug_str:00000000000008c5 .LASF90
     /tmp/cchkHLG8.s:3377   .debug_str:000000000000084c .LASF91
     /tmp/cchkHLG8.s:3233   .debug_str:00000000000003af .LASF92
     /tmp/cchkHLG8.s:3359   .debug_str:00000000000007e2 .LASF93
     /tmp/cchkHLG8.s:3181   .debug_str:0000000000000215 .LASF94
     /tmp/cchkHLG8.s:3263   .debug_str:000000000000049b .LASF95
     /tmp/cchkHLG8.s:3207   .debug_str:00000000000002e0 .LASF96
     /tmp/cchkHLG8.s:3279   .debug_str:000000000000050c .LASF97
     /tmp/cchkHLG8.s:3375   .debug_str:0000000000000843 .LASF98
     /tmp/cchkHLG8.s:3335   .debug_str:000000000000067e .LASF99
     /tmp/cchkHLG8.s:3403   .debug_str:00000000000008fc .LASF102
     /tmp/cchkHLG8.s:3149   .debug_str:000000000000012f .LASF100
     /tmp/cchkHLG8.s:3235   .debug_str:00000000000003c5 .LASF101
     /tmp/cchkHLG8.s:3345   .debug_str:000000000000076c .LASF103
     /tmp/cchkHLG8.s:3203   .debug_str:00000000000002bc .LASF109
     /tmp/cchkHLG8.s:3283   .debug_str:000000000000051a .LASF104
     /tmp/cchkHLG8.s:3307   .debug_str:00000000000005ad .LASF112
     /tmp/cchkHLG8.s:3185   .debug_str:000000000000023f .LASF147
     /tmp/cchkHLG8.s:3401   .debug_str:00000000000008f4 .LASF105
     /tmp/cchkHLG8.s:3147   .debug_str:0000000000000125 .LASF106
     /tmp/cchkHLG8.s:3327   .debug_str:000000000000064c .LASF107
     /tmp/cchkHLG8.s:3153   .debug_str:0000000000000147 .LASF108
     /tmp/cchkHLG8.s:3357   .debug_str:00000000000007d0 .LASF110
     /tmp/cchkHLG8.s:3281   .debug_str:0000000000000511 .LASF111
     /tmp/cchkHLG8.s:3129   .debug_str:000000000000009d .LASF113
     /tmp/cchkHLG8.s:3175   .debug_str:00000000000001e2 .LASF114
     /tmp/cchkHLG8.s:313    .text:00000000000001a0 .LFB52
     /tmp/cchkHLG8.s:481    .text:00000000000002ac .LFE52
     /tmp/cchkHLG8.s:3237   .debug_str:00000000000003de .LASF115
     /tmp/cchkHLG8.s:2900   .debug_loc:0000000000000000 .LLST11
     /tmp/cchkHLG8.s:3247   .debug_str:0000000000000416 .LASF116
     /tmp/cchkHLG8.s:345    .text:00000000000001e4 .LBB30
     /tmp/cchkHLG8.s:357    .text:00000000000001e8 .LBE30
     /tmp/cchkHLG8.s:359    .text:00000000000001e8 .LBB32
     /tmp/cchkHLG8.s:371    .text:00000000000001f0 .LBE32
     /tmp/cchkHLG8.s:2911   .debug_loc:0000000000000036 .LLST12
     /tmp/cchkHLG8.s:397    .text:0000000000000228 .LBB34
     /tmp/cchkHLG8.s:405    .text:000000000000022c .LBE34
     /tmp/cchkHLG8.s:2919   .debug_loc:000000000000005a .LLST13
     /tmp/cchkHLG8.s:419    .text:0000000000000244 .LBB36
     /tmp/cchkHLG8.s:431    .text:0000000000000254 .LBE36
     /tmp/cchkHLG8.s:2926   .debug_loc:000000000000007d .LLST14
     /tmp/cchkHLG8.s:428    .text:0000000000000254 .LVL46
     /tmp/cchkHLG8.s:441    .text:0000000000000264 .LBB38
     /tmp/cchkHLG8.s:453    .text:0000000000000274 .LBE38
     /tmp/cchkHLG8.s:2933   .debug_loc:00000000000000a0 .LLST15
GAS LISTING /tmp/cchkHLG8.s 			page 23


     /tmp/cchkHLG8.s:450    .text:0000000000000274 .LVL49
     /tmp/cchkHLG8.s:334    .text:00000000000001cc .LVL33
     /tmp/cchkHLG8.s:377    .text:0000000000000200 .LVL39
     /tmp/cchkHLG8.s:385    .text:0000000000000218 .LVL40
     /tmp/cchkHLG8.s:390    .text:0000000000000224 .LVL41
     /tmp/cchkHLG8.s:412    .text:000000000000023c .LVL44
     /tmp/cchkHLG8.s:435    .text:0000000000000260 .LVL47
     /tmp/cchkHLG8.s:457    .text:0000000000000280 .LVL50
     /tmp/cchkHLG8.s:463    .text:0000000000000290 .LVL51
     /tmp/cchkHLG8.s:3231   .debug_str:000000000000039f .LASF117
     /tmp/cchkHLG8.s:3349   .debug_str:0000000000000786 .LASF118
     /tmp/cchkHLG8.s:10     .text:0000000000000000 .LFB51
     /tmp/cchkHLG8.s:37     .text:0000000000000028 .LFE51
     /tmp/cchkHLG8.s:2940   .debug_loc:00000000000000c3 .LLST0
     /tmp/cchkHLG8.s:26     .text:0000000000000018 .LVL1
     /tmp/cchkHLG8.s:182    .text:00000000000000e0 .LFB50
     /tmp/cchkHLG8.s:299    .text:00000000000001a0 .LFE50
     /tmp/cchkHLG8.s:3173   .debug_str:00000000000001dd .LASF119
     /tmp/cchkHLG8.s:2954   .debug_loc:00000000000000fc .LLST6
     /tmp/cchkHLG8.s:2968   .debug_loc:0000000000000135 .LLST7
     /tmp/cchkHLG8.s:200    .text:00000000000000f8 .LBB22
     /tmp/cchkHLG8.s:274    .text:0000000000000170 .LBE22
     /tmp/cchkHLG8.s:2982   .debug_loc:000000000000016e .LLST8
     /tmp/cchkHLG8.s:3093   .debug_ranges:0000000000000000 .Ldebug_ranges0
     /tmp/cchkHLG8.s:2994   .debug_loc:00000000000001a5 .LLST9
     /tmp/cchkHLG8.s:223    .text:0000000000000118 .LBB26
     /tmp/cchkHLG8.s:238    .text:0000000000000130 .LBE26
     /tmp/cchkHLG8.s:3006   .debug_loc:00000000000001dc .LLST10
     /tmp/cchkHLG8.s:212    .text:0000000000000108 .LVL20
     /tmp/cchkHLG8.s:254    .text:000000000000014c .LVL26
     /tmp/cchkHLG8.s:259    .text:0000000000000158 .LVL27
     /tmp/cchkHLG8.s:264    .text:0000000000000168 .LVL28
     /tmp/cchkHLG8.s:279    .text:0000000000000180 .LVL30
     /tmp/cchkHLG8.s:283    .text:0000000000000188 .LVL31
     /tmp/cchkHLG8.s:54     .text:0000000000000028 .LFB49
     /tmp/cchkHLG8.s:168    .text:00000000000000e0 .LFE49
     /tmp/cchkHLG8.s:3017   .debug_loc:0000000000000212 .LLST1
     /tmp/cchkHLG8.s:3031   .debug_loc:000000000000024b .LLST2
     /tmp/cchkHLG8.s:73     .text:0000000000000040 .LBB14
     /tmp/cchkHLG8.s:147    .text:00000000000000b8 .LBE14
     /tmp/cchkHLG8.s:3045   .debug_loc:0000000000000284 .LLST3
     /tmp/cchkHLG8.s:3057   .debug_loc:00000000000002bb .LLST4
     /tmp/cchkHLG8.s:96     .text:0000000000000060 .LBB18
     /tmp/cchkHLG8.s:111    .text:0000000000000078 .LBE18
     /tmp/cchkHLG8.s:3069   .debug_loc:00000000000002f2 .LLST5
     /tmp/cchkHLG8.s:85     .text:0000000000000050 .LVL5
     /tmp/cchkHLG8.s:127    .text:0000000000000094 .LVL11
     /tmp/cchkHLG8.s:132    .text:00000000000000a0 .LVL12
     /tmp/cchkHLG8.s:137    .text:00000000000000b0 .LVL13
     /tmp/cchkHLG8.s:152    .text:00000000000000c8 .LVL15
     /tmp/cchkHLG8.s:3119   .debug_str:000000000000005b .LASF120
     /tmp/cchkHLG8.s:3213   .debug_str:0000000000000328 .LASF148
     /tmp/cchkHLG8.s:3369   .debug_str:0000000000000830 .LASF121
     /tmp/cchkHLG8.s:3225   .debug_str:000000000000037b .LASF122
     /tmp/cchkHLG8.s:3249   .debug_str:0000000000000425 .LASF149
     /tmp/cchkHLG8.s:3311   .debug_str:00000000000005c5 .LASF150
     /tmp/cchkHLG8.s:3317   .debug_str:0000000000000605 .LASF123
GAS LISTING /tmp/cchkHLG8.s 			page 24


     /tmp/cchkHLG8.s:3395   .debug_str:00000000000008db .LASF125
     /tmp/cchkHLG8.s:3255   .debug_str:0000000000000455 .LASF124
     /tmp/cchkHLG8.s:3363   .debug_str:00000000000007fa .LASF126
     /tmp/cchkHLG8.s:3227   .debug_str:0000000000000381 .LASF127
     /tmp/cchkHLG8.s:3261   .debug_str:000000000000048e .LASF128
     /tmp/cchkHLG8.s:3373   .debug_str:000000000000083c .LASF129
     /tmp/cchkHLG8.s:3113   .debug_str:0000000000000017 .LASF130
     /tmp/cchkHLG8.s:3193   .debug_str:000000000000027b .LASF131
     /tmp/cchkHLG8.s:3265   .debug_str:00000000000004b0 .LASF132
     /tmp/cchkHLG8.s:3125   .debug_str:0000000000000077 .LASF133
     /tmp/cchkHLG8.s:3277   .debug_str:00000000000004fc .LASF134
     /tmp/cchkHLG8.s:3109   .debug_str:0000000000000000 .LASF135
     /tmp/cchkHLG8.s:3267   .debug_str:00000000000004b9 .LASF136
     /tmp/cchkHLG8.s:336    .text:00000000000001d0 .LVL34
     /tmp/cchkHLG8.s:375    .text:00000000000001f8 .LVL38
     /tmp/cchkHLG8.s:476    .text:00000000000002a4 .LVL52
     /tmp/cchkHLG8.s:354    .text:00000000000001e8 .LVL36
     /tmp/cchkHLG8.s:368    .text:00000000000001f0 .LVL37
     /tmp/cchkHLG8.s:396    .text:0000000000000228 .LVL42
     /tmp/cchkHLG8.s:403    .text:000000000000022c .LVL43
     /tmp/cchkHLG8.s:418    .text:0000000000000244 .LVL45
     /tmp/cchkHLG8.s:440    .text:0000000000000264 .LVL48
     /tmp/cchkHLG8.s:14     .text:0000000000000000 .LVL0
     /tmp/cchkHLG8.s:185    .text:00000000000000e0 .LVL17
     /tmp/cchkHLG8.s:204    .text:0000000000000100 .LVL19
     /tmp/cchkHLG8.s:199    .text:00000000000000f8 .LVL18
     /tmp/cchkHLG8.s:294    .text:0000000000000198 .LVL32
     /tmp/cchkHLG8.s:244    .text:0000000000000134 .LVL25
     /tmp/cchkHLG8.s:270    .text:0000000000000170 .LVL29
     /tmp/cchkHLG8.s:227    .text:000000000000011c .LVL22
     /tmp/cchkHLG8.s:236    .text:0000000000000130 .LVL24
     /tmp/cchkHLG8.s:58     .text:0000000000000028 .LVL2
     /tmp/cchkHLG8.s:77     .text:0000000000000048 .LVL4
     /tmp/cchkHLG8.s:72     .text:0000000000000040 .LVL3
     /tmp/cchkHLG8.s:163    .text:00000000000000d8 .LVL16
     /tmp/cchkHLG8.s:117    .text:000000000000007c .LVL10
     /tmp/cchkHLG8.s:143    .text:00000000000000b8 .LVL14
     /tmp/cchkHLG8.s:100    .text:0000000000000064 .LVL7
     /tmp/cchkHLG8.s:109    .text:0000000000000078 .LVL9
     /tmp/cchkHLG8.s:490    .debug_info:0000000000000000 .Ldebug_info0
     /tmp/cchkHLG8.s:80     .text:0000000000000048 .LBB16
     /tmp/cchkHLG8.s:113    .text:0000000000000078 .LBE16
     /tmp/cchkHLG8.s:139    .text:00000000000000b0 .LBB20
     /tmp/cchkHLG8.s:145    .text:00000000000000b8 .LBE20
     /tmp/cchkHLG8.s:207    .text:0000000000000100 .LBB24
     /tmp/cchkHLG8.s:240    .text:0000000000000130 .LBE24
     /tmp/cchkHLG8.s:266    .text:0000000000000168 .LBB28
     /tmp/cchkHLG8.s:272    .text:0000000000000170 .LBE28

UNDEFINED SYMBOLS
_Z8userMainv
_Z15thread_dispatchv
_Z11printStringPKc
_Z12printIntegerm
_ZN3TCB12createThreadEPFvPvES0_Pm
_ZN3TCB7runningE
_ZN5Riscv14supervisorTrapEv
GAS LISTING /tmp/cchkHLG8.s 			page 25


_Z13thread_createPP3TCBPFvPvES2_
_Z12thread_startP3TCB
_ZN3TCB5yieldEv
_ZdaPv
_ZdlPv
