GAS LISTING /tmp/ccxVa4lr.s 			page 1


   1              		.file	"syscall_cpp.cpp"
   2              		.option pic
   3              		.option norelax
   4              		.text
   5              	.Ltext0:
   6              		.section	.text._ZN6Thread3runEv,"axG",@progbits,_ZN6Thread3runEv,comdat
   7              		.align	2
   8              		.weak	_ZN6Thread3runEv
  10              	_ZN6Thread3runEv:
  11              	.LFB40:
  12              		.file 1 "src/../h/syscall_cpp.hpp"
   1:src/../h/syscall_cpp.hpp **** //
   2:src/../h/syscall_cpp.hpp **** // Created by os on 9/7/22.
   3:src/../h/syscall_cpp.hpp **** //
   4:src/../h/syscall_cpp.hpp **** 
   5:src/../h/syscall_cpp.hpp **** #ifndef _syscall_cpp
   6:src/../h/syscall_cpp.hpp **** #define _syscall_cpp
   7:src/../h/syscall_cpp.hpp **** 
   8:src/../h/syscall_cpp.hpp **** #include "syscall_c.hpp"
   9:src/../h/syscall_cpp.hpp **** 
  10:src/../h/syscall_cpp.hpp **** void*   operator new (size_t);
  11:src/../h/syscall_cpp.hpp **** void    operator delete(void*);
  12:src/../h/syscall_cpp.hpp **** 
  13:src/../h/syscall_cpp.hpp **** class Thread {
  14:src/../h/syscall_cpp.hpp **** public:
  15:src/../h/syscall_cpp.hpp ****     Thread (void (*body) (void*), void* arg);
  16:src/../h/syscall_cpp.hpp ****     virtual ~Thread();
  17:src/../h/syscall_cpp.hpp **** 
  18:src/../h/syscall_cpp.hpp ****     int start();
  19:src/../h/syscall_cpp.hpp **** 
  20:src/../h/syscall_cpp.hpp ****     static void dispatch();
  21:src/../h/syscall_cpp.hpp ****     static int sleep(time_t);
  22:src/../h/syscall_cpp.hpp **** 
  23:src/../h/syscall_cpp.hpp **** protected:
  24:src/../h/syscall_cpp.hpp ****     Thread ();
  25:src/../h/syscall_cpp.hpp ****     virtual void run() {}
  13              		.loc 1 25 18
  14              		.cfi_startproc
  15              	.LVL0:
  16 0000 130101FF 		addi	sp,sp,-16
  17              		.cfi_def_cfa_offset 16
  18 0004 23348100 		sd	s0,8(sp)
  19              		.cfi_offset 8, -8
  20 0008 13040101 		addi	s0,sp,16
  21              		.cfi_def_cfa 8, 0
  22              		.loc 1 25 25 is_stmt 0
  23 000c 03348100 		ld	s0,8(sp)
  24              		.cfi_restore 8
  25              		.cfi_def_cfa 2, 16
  26 0010 13010101 		addi	sp,sp,16
  27              		.cfi_def_cfa_offset 0
  28 0014 67800000 		jr	ra
  29              		.cfi_endproc
  30              	.LFE40:
  32              		.text
  33              		.align	2
  34              		.globl	_ZN6Thread10runWrapperEPv
GAS LISTING /tmp/ccxVa4lr.s 			page 2


  36              	_ZN6Thread10runWrapperEPv:
  37              	.LFB54:
  38              		.file 2 "src/syscall_cpp.cpp"
   1:src/syscall_cpp.cpp **** //
   2:src/syscall_cpp.cpp **** // Created by os on 9/7/22.
   3:src/syscall_cpp.cpp **** //
   4:src/syscall_cpp.cpp **** 
   5:src/syscall_cpp.cpp **** #include "../h/syscall_cpp.hpp"
   6:src/syscall_cpp.cpp **** #include "../h/syscall_c.hpp"
   7:src/syscall_cpp.cpp **** 
   8:src/syscall_cpp.cpp **** // Thread
   9:src/syscall_cpp.cpp **** Thread::Thread (void (*body) (void*), void* arg)
  10:src/syscall_cpp.cpp **** {
  11:src/syscall_cpp.cpp ****     thread_create( &myHandle, body, arg);
  12:src/syscall_cpp.cpp **** }
  13:src/syscall_cpp.cpp **** 
  14:src/syscall_cpp.cpp **** Thread::~Thread() {
  15:src/syscall_cpp.cpp ****     thread_exit();
  16:src/syscall_cpp.cpp ****     delete myHandle;
  17:src/syscall_cpp.cpp **** }
  18:src/syscall_cpp.cpp **** 
  19:src/syscall_cpp.cpp **** int Thread::start() {
  20:src/syscall_cpp.cpp ****     thread_start(myHandle);
  21:src/syscall_cpp.cpp ****     return 0;
  22:src/syscall_cpp.cpp **** }
  23:src/syscall_cpp.cpp **** 
  24:src/syscall_cpp.cpp **** void Thread::dispatch() {
  25:src/syscall_cpp.cpp ****     thread_dispatch();
  26:src/syscall_cpp.cpp **** }
  27:src/syscall_cpp.cpp **** 
  28:src/syscall_cpp.cpp **** int Thread::sleep(time_t) {
  29:src/syscall_cpp.cpp ****     return 0;
  30:src/syscall_cpp.cpp **** }
  31:src/syscall_cpp.cpp **** 
  32:src/syscall_cpp.cpp **** Thread::Thread() {
  33:src/syscall_cpp.cpp ****     thread_create( &myHandle, Thread::runWrapper, this);
  34:src/syscall_cpp.cpp **** }
  35:src/syscall_cpp.cpp **** 
  36:src/syscall_cpp.cpp **** void Thread::runWrapper(void *arg)
  37:src/syscall_cpp.cpp **** {
  39              		.loc 2 37 1 is_stmt 1
  40              		.cfi_startproc
  41              	.LVL1:
  42 0000 130101FF 		addi	sp,sp,-16
  43              		.cfi_def_cfa_offset 16
  44 0004 23341100 		sd	ra,8(sp)
  45 0008 23308100 		sd	s0,0(sp)
  46              		.cfi_offset 1, -8
  47              		.cfi_offset 8, -16
  48 000c 13040101 		addi	s0,sp,16
  49              		.cfi_def_cfa 8, 0
  38:src/syscall_cpp.cpp ****     //void* curr = TCB::running->getArg();
  39:src/syscall_cpp.cpp ****     ((Thread*)arg)->run();
  50              		.loc 2 39 5
  51              		.loc 2 39 25 is_stmt 0
  52 0010 83370500 		ld	a5,0(a0)
  53 0014 83B70701 		ld	a5,16(a5)
GAS LISTING /tmp/ccxVa4lr.s 			page 3


  54              		.loc 2 39 24
  55 0018 E7800700 		jalr	a5
  56              	.LVL2:
  40:src/syscall_cpp.cpp ****     //((Thread*)arg)->run();
  41:src/syscall_cpp.cpp ****     /*Thread* sth = (Thread*) arg;
  42:src/syscall_cpp.cpp ****     if (sth);*/
  43:src/syscall_cpp.cpp **** }
  57              		.loc 2 43 1
  58 001c 83308100 		ld	ra,8(sp)
  59              		.cfi_restore 1
  60 0020 03340100 		ld	s0,0(sp)
  61              		.cfi_restore 8
  62              		.cfi_def_cfa 2, 16
  63 0024 13010101 		addi	sp,sp,16
  64              		.cfi_def_cfa_offset 0
  65 0028 67800000 		jr	ra
  66              		.cfi_endproc
  67              	.LFE54:
  69              		.align	2
  70              		.globl	_ZN6ThreadD2Ev
  72              	_ZN6ThreadD2Ev:
  73              	.LFB45:
  14:src/syscall_cpp.cpp ****     thread_exit();
  74              		.loc 2 14 1 is_stmt 1
  75              		.cfi_startproc
  76              		.cfi_personality 0x9b,DW.ref.__gxx_personality_v0
  77              		.cfi_lsda 0x1b,.LLSDA45
  78              	.LVL3:
  79 002c 130101FE 		addi	sp,sp,-32
  80              		.cfi_def_cfa_offset 32
  81 0030 233C1100 		sd	ra,24(sp)
  82 0034 23388100 		sd	s0,16(sp)
  83 0038 23349100 		sd	s1,8(sp)
  84              		.cfi_offset 1, -8
  85              		.cfi_offset 8, -16
  86              		.cfi_offset 9, -24
  87 003c 13040102 		addi	s0,sp,32
  88              		.cfi_def_cfa 8, 0
  89 0040 93040500 		mv	s1,a0
  90              	.LBB6:
  14:src/syscall_cpp.cpp ****     thread_exit();
  91              		.loc 2 14 17 is_stmt 0
  92 0044 97070000 		lla	a5,_ZTV6Thread+16
  92      93870700 
  93 004c 2330F500 		sd	a5,0(a0)
  15:src/syscall_cpp.cpp ****     delete myHandle;
  94              		.loc 2 15 5 is_stmt 1
  15:src/syscall_cpp.cpp ****     delete myHandle;
  95              		.loc 2 15 16 is_stmt 0
  96 0050 97000000 		call	_Z11thread_exitv@plt
  96      E7800000 
  97              	.LVL4:
  16:src/syscall_cpp.cpp **** }
  98              		.loc 2 16 5 is_stmt 1
  16:src/syscall_cpp.cpp **** }
  99              		.loc 2 16 12 is_stmt 0
 100 0058 83B48400 		ld	s1,8(s1)
GAS LISTING /tmp/ccxVa4lr.s 			page 4


 101              	.LVL5:
  16:src/syscall_cpp.cpp **** }
 102              		.loc 2 16 20
 103 005c 63800402 		beqz	s1,.L5
 104              	.LVL6:
 105              	.LBB7:
 106              	.LBB8:
 107              		.file 3 "src/../h/tcb.hpp"
   1:src/../h/tcb.hpp **** //
   2:src/../h/tcb.hpp **** // Created by os on 8/15/22.
   3:src/../h/tcb.hpp **** //
   4:src/../h/tcb.hpp **** 
   5:src/../h/tcb.hpp **** #ifndef PROJECT_BASE_TCB_HPP
   6:src/../h/tcb.hpp **** #define PROJECT_BASE_TCB_HPP
   7:src/../h/tcb.hpp **** 
   8:src/../h/tcb.hpp **** #include "../lib/hw.h"
   9:src/../h/tcb.hpp **** #include "scheduler.hpp"
  10:src/../h/tcb.hpp **** #include "riscv.hpp"
  11:src/../h/tcb.hpp **** #include "print.hpp"
  12:src/../h/tcb.hpp **** 
  13:src/../h/tcb.hpp **** //#include "print.hpp"
  14:src/../h/tcb.hpp **** 
  15:src/../h/tcb.hpp **** //Thread Control Block
  16:src/../h/tcb.hpp **** class TCB
  17:src/../h/tcb.hpp **** {
  18:src/../h/tcb.hpp **** public:
  19:src/../h/tcb.hpp **** 
  20:src/../h/tcb.hpp ****     enum Status {
  21:src/../h/tcb.hpp ****         CREATED,
  22:src/../h/tcb.hpp ****         READY,
  23:src/../h/tcb.hpp ****         RUNNING,
  24:src/../h/tcb.hpp ****         FINISHED,
  25:src/../h/tcb.hpp ****         BLOCKED
  26:src/../h/tcb.hpp ****     };
  27:src/../h/tcb.hpp **** 
  28:src/../h/tcb.hpp ****     ~TCB() { delete[] stack; }
 108              		.loc 3 28 14 is_stmt 1
 109              		.loc 3 28 23 is_stmt 0
 110 0060 03B58400 		ld	a0,8(s1)
 111              		.loc 3 28 28
 112 0064 63060500 		beqz	a0,.L7
 113              		.loc 3 28 23
 114 0068 97000000 		call	_ZdaPv@plt
 114      E7800000 
 115              	.LVL7:
 116              	.L7:
 117              	.LBE8:
 118              	.LBE7:
  16:src/syscall_cpp.cpp **** }
 119              		.loc 2 16 12
 120 0070 13850400 		mv	a0,s1
 121 0074 97000000 		call	_ZdlPv@plt
 121      E7800000 
 122              	.LVL8:
 123              	.L5:
 124              	.LBE6:
  17:src/syscall_cpp.cpp **** 
GAS LISTING /tmp/ccxVa4lr.s 			page 5


 125              		.loc 2 17 1
 126 007c 83308101 		ld	ra,24(sp)
 127              		.cfi_restore 1
 128 0080 03340101 		ld	s0,16(sp)
 129              		.cfi_restore 8
 130              		.cfi_def_cfa 2, 32
 131 0084 83348100 		ld	s1,8(sp)
 132              		.cfi_restore 9
 133 0088 13010102 		addi	sp,sp,32
 134              		.cfi_def_cfa_offset 0
 135 008c 67800000 		jr	ra
 136              		.cfi_endproc
 137              	.LFE45:
 138              		.globl	__gxx_personality_v0
 139              		.section	.gcc_except_table,"a",@progbits
 140              	.LLSDA45:
 141 0000 FF       		.byte	0xff
 142 0001 FF       		.byte	0xff
 143 0002 03       		.byte	0x3
 144 0003 00       		.byte	0
 145              		.text
 147              		.globl	_ZN6ThreadD1Ev
 148              		.set	_ZN6ThreadD1Ev,_ZN6ThreadD2Ev
 149              		.align	2
 150              		.globl	_ZN6ThreadD0Ev
 152              	_ZN6ThreadD0Ev:
 153              	.LFB47:
  14:src/syscall_cpp.cpp ****     thread_exit();
 154              		.loc 2 14 1 is_stmt 1
 155              		.cfi_startproc
 156              	.LVL9:
 157 0090 130101FE 		addi	sp,sp,-32
 158              		.cfi_def_cfa_offset 32
 159 0094 233C1100 		sd	ra,24(sp)
 160 0098 23388100 		sd	s0,16(sp)
 161 009c 23349100 		sd	s1,8(sp)
 162              		.cfi_offset 1, -8
 163              		.cfi_offset 8, -16
 164              		.cfi_offset 9, -24
 165 00a0 13040102 		addi	s0,sp,32
 166              		.cfi_def_cfa 8, 0
 167 00a4 93040500 		mv	s1,a0
  17:src/syscall_cpp.cpp **** 
 168              		.loc 2 17 1 is_stmt 0
 169 00a8 97000000 		call	_ZN6ThreadD1Ev
 169      E7800000 
 170              	.LVL10:
 171 00b0 13850400 		mv	a0,s1
 172 00b4 97000000 		call	_ZdlPv@plt
 172      E7800000 
 173              	.LVL11:
 174 00bc 83308101 		ld	ra,24(sp)
 175              		.cfi_restore 1
 176 00c0 03340101 		ld	s0,16(sp)
 177              		.cfi_restore 8
 178              		.cfi_def_cfa 2, 32
 179 00c4 83348100 		ld	s1,8(sp)
GAS LISTING /tmp/ccxVa4lr.s 			page 6


 180              		.cfi_restore 9
 181              	.LVL12:
 182 00c8 13010102 		addi	sp,sp,32
 183              		.cfi_def_cfa_offset 0
 184 00cc 67800000 		jr	ra
 185              		.cfi_endproc
 186              	.LFE47:
 188              		.align	2
 189              		.globl	_ZN9SemaphoreD2Ev
 191              	_ZN9SemaphoreD2Ev:
 192              	.LFB59:
  44:src/syscall_cpp.cpp **** 
  45:src/syscall_cpp.cpp **** // Semaphore
  46:src/syscall_cpp.cpp **** 
  47:src/syscall_cpp.cpp **** Semaphore::Semaphore(unsigned int init) {
  48:src/syscall_cpp.cpp ****     sem_open(&myHandle, init);
  49:src/syscall_cpp.cpp **** }
  50:src/syscall_cpp.cpp **** 
  51:src/syscall_cpp.cpp **** Semaphore::~Semaphore() {
 193              		.loc 2 51 1 is_stmt 1
 194              		.cfi_startproc
 195              		.cfi_personality 0x9b,DW.ref.__gxx_personality_v0
 196              		.cfi_lsda 0x1b,.LLSDA59
 197              	.LVL13:
 198 00d0 130101FF 		addi	sp,sp,-16
 199              		.cfi_def_cfa_offset 16
 200 00d4 23341100 		sd	ra,8(sp)
 201 00d8 23308100 		sd	s0,0(sp)
 202              		.cfi_offset 1, -8
 203              		.cfi_offset 8, -16
 204 00dc 13040101 		addi	s0,sp,16
 205              		.cfi_def_cfa 8, 0
 206              	.LBB9:
 207              		.loc 2 51 23 is_stmt 0
 208 00e0 97070000 		lla	a5,_ZTV9Semaphore+16
 208      93870700 
 209 00e8 2330F500 		sd	a5,0(a0)
  52:src/syscall_cpp.cpp ****     sem_close(myHandle);
 210              		.loc 2 52 5 is_stmt 1
 211              		.loc 2 52 14 is_stmt 0
 212 00ec 03358500 		ld	a0,8(a0)
 213              	.LVL14:
 214 00f0 97000000 		call	_Z9sem_closeP4_sem@plt
 214      E7800000 
 215              	.LVL15:
 216              	.LBE9:
  53:src/syscall_cpp.cpp **** }
 217              		.loc 2 53 1
 218 00f8 83308100 		ld	ra,8(sp)
 219              		.cfi_restore 1
 220 00fc 03340100 		ld	s0,0(sp)
 221              		.cfi_restore 8
 222              		.cfi_def_cfa 2, 16
 223 0100 13010101 		addi	sp,sp,16
 224              		.cfi_def_cfa_offset 0
 225 0104 67800000 		jr	ra
 226              		.cfi_endproc
GAS LISTING /tmp/ccxVa4lr.s 			page 7


 227              	.LFE59:
 228              		.section	.gcc_except_table
 229              	.LLSDA59:
 230 0004 FF       		.byte	0xff
 231 0005 FF       		.byte	0xff
 232 0006 03       		.byte	0x3
 233 0007 00       		.byte	0
 234              		.text
 236              		.globl	_ZN9SemaphoreD1Ev
 237              		.set	_ZN9SemaphoreD1Ev,_ZN9SemaphoreD2Ev
 238              		.align	2
 239              		.globl	_ZN9SemaphoreD0Ev
 241              	_ZN9SemaphoreD0Ev:
 242              	.LFB61:
  51:src/syscall_cpp.cpp ****     sem_close(myHandle);
 243              		.loc 2 51 1 is_stmt 1
 244              		.cfi_startproc
 245              	.LVL16:
 246 0108 130101FE 		addi	sp,sp,-32
 247              		.cfi_def_cfa_offset 32
 248 010c 233C1100 		sd	ra,24(sp)
 249 0110 23388100 		sd	s0,16(sp)
 250 0114 23349100 		sd	s1,8(sp)
 251              		.cfi_offset 1, -8
 252              		.cfi_offset 8, -16
 253              		.cfi_offset 9, -24
 254 0118 13040102 		addi	s0,sp,32
 255              		.cfi_def_cfa 8, 0
 256 011c 93040500 		mv	s1,a0
 257              		.loc 2 53 1 is_stmt 0
 258 0120 97000000 		call	_ZN9SemaphoreD1Ev
 258      E7800000 
 259              	.LVL17:
 260 0128 13850400 		mv	a0,s1
 261 012c 97000000 		call	_ZdlPv@plt
 261      E7800000 
 262              	.LVL18:
 263 0134 83308101 		ld	ra,24(sp)
 264              		.cfi_restore 1
 265 0138 03340101 		ld	s0,16(sp)
 266              		.cfi_restore 8
 267              		.cfi_def_cfa 2, 32
 268 013c 83348100 		ld	s1,8(sp)
 269              		.cfi_restore 9
 270              	.LVL19:
 271 0140 13010102 		addi	sp,sp,32
 272              		.cfi_def_cfa_offset 0
 273 0144 67800000 		jr	ra
 274              		.cfi_endproc
 275              	.LFE61:
 277              		.align	2
 278              		.globl	_ZN6ThreadC2EPFvPvES0_
 280              	_ZN6ThreadC2EPFvPvES0_:
 281              	.LFB42:
   9:src/syscall_cpp.cpp **** {
 282              		.loc 2 9 1 is_stmt 1
 283              		.cfi_startproc
GAS LISTING /tmp/ccxVa4lr.s 			page 8


 284              	.LVL20:
 285 0148 130101FF 		addi	sp,sp,-16
 286              		.cfi_def_cfa_offset 16
 287 014c 23341100 		sd	ra,8(sp)
 288 0150 23308100 		sd	s0,0(sp)
 289              		.cfi_offset 1, -8
 290              		.cfi_offset 8, -16
 291 0154 13040101 		addi	s0,sp,16
 292              		.cfi_def_cfa 8, 0
 293              	.LBB10:
   9:src/syscall_cpp.cpp **** {
 294              		.loc 2 9 48 is_stmt 0
 295 0158 97070000 		lla	a5,_ZTV6Thread+16
 295      93870700 
 296 0160 2330F500 		sd	a5,0(a0)
  11:src/syscall_cpp.cpp **** }
 297              		.loc 2 11 5 is_stmt 1
  11:src/syscall_cpp.cpp **** }
 298              		.loc 2 11 18 is_stmt 0
 299 0164 13058500 		addi	a0,a0,8
 300              	.LVL21:
 301 0168 97000000 		call	_Z13thread_createPP3TCBPFvPvES2_@plt
 301      E7800000 
 302              	.LVL22:
 303              	.LBE10:
  12:src/syscall_cpp.cpp **** 
 304              		.loc 2 12 1
 305 0170 83308100 		ld	ra,8(sp)
 306              		.cfi_restore 1
 307 0174 03340100 		ld	s0,0(sp)
 308              		.cfi_restore 8
 309              		.cfi_def_cfa 2, 16
 310 0178 13010101 		addi	sp,sp,16
 311              		.cfi_def_cfa_offset 0
 312 017c 67800000 		jr	ra
 313              		.cfi_endproc
 314              	.LFE42:
 316              		.globl	_ZN6ThreadC1EPFvPvES0_
 317              		.set	_ZN6ThreadC1EPFvPvES0_,_ZN6ThreadC2EPFvPvES0_
 318              		.align	2
 319              		.globl	_ZN6Thread5startEv
 321              	_ZN6Thread5startEv:
 322              	.LFB48:
  19:src/syscall_cpp.cpp ****     thread_start(myHandle);
 323              		.loc 2 19 21 is_stmt 1
 324              		.cfi_startproc
 325              	.LVL23:
 326 0180 130101FF 		addi	sp,sp,-16
 327              		.cfi_def_cfa_offset 16
 328 0184 23341100 		sd	ra,8(sp)
 329 0188 23308100 		sd	s0,0(sp)
 330              		.cfi_offset 1, -8
 331              		.cfi_offset 8, -16
 332 018c 13040101 		addi	s0,sp,16
 333              		.cfi_def_cfa 8, 0
  20:src/syscall_cpp.cpp ****     return 0;
 334              		.loc 2 20 5
GAS LISTING /tmp/ccxVa4lr.s 			page 9


  20:src/syscall_cpp.cpp ****     return 0;
 335              		.loc 2 20 17 is_stmt 0
 336 0190 03358500 		ld	a0,8(a0)
 337              	.LVL24:
 338 0194 97000000 		call	_Z12thread_startP3TCB@plt
 338      E7800000 
 339              	.LVL25:
  21:src/syscall_cpp.cpp **** }
 340              		.loc 2 21 5 is_stmt 1
  22:src/syscall_cpp.cpp **** 
 341              		.loc 2 22 1 is_stmt 0
 342 019c 13050000 		li	a0,0
 343 01a0 83308100 		ld	ra,8(sp)
 344              		.cfi_restore 1
 345 01a4 03340100 		ld	s0,0(sp)
 346              		.cfi_restore 8
 347              		.cfi_def_cfa 2, 16
 348 01a8 13010101 		addi	sp,sp,16
 349              		.cfi_def_cfa_offset 0
 350 01ac 67800000 		jr	ra
 351              		.cfi_endproc
 352              	.LFE48:
 354              		.align	2
 355              		.globl	_ZN6Thread8dispatchEv
 357              	_ZN6Thread8dispatchEv:
 358              	.LFB49:
  24:src/syscall_cpp.cpp ****     thread_dispatch();
 359              		.loc 2 24 25 is_stmt 1
 360              		.cfi_startproc
 361 01b0 130101FF 		addi	sp,sp,-16
 362              		.cfi_def_cfa_offset 16
 363 01b4 23341100 		sd	ra,8(sp)
 364 01b8 23308100 		sd	s0,0(sp)
 365              		.cfi_offset 1, -8
 366              		.cfi_offset 8, -16
 367 01bc 13040101 		addi	s0,sp,16
 368              		.cfi_def_cfa 8, 0
  25:src/syscall_cpp.cpp **** }
 369              		.loc 2 25 5
  25:src/syscall_cpp.cpp **** }
 370              		.loc 2 25 20 is_stmt 0
 371 01c0 97000000 		call	_Z15thread_dispatchv@plt
 371      E7800000 
 372              	.LVL26:
  26:src/syscall_cpp.cpp **** 
 373              		.loc 2 26 1
 374 01c8 83308100 		ld	ra,8(sp)
 375              		.cfi_restore 1
 376 01cc 03340100 		ld	s0,0(sp)
 377              		.cfi_restore 8
 378              		.cfi_def_cfa 2, 16
 379 01d0 13010101 		addi	sp,sp,16
 380              		.cfi_def_cfa_offset 0
 381 01d4 67800000 		jr	ra
 382              		.cfi_endproc
 383              	.LFE49:
 385              		.align	2
GAS LISTING /tmp/ccxVa4lr.s 			page 10


 386              		.globl	_ZN6Thread5sleepEm
 388              	_ZN6Thread5sleepEm:
 389              	.LFB50:
  28:src/syscall_cpp.cpp ****     return 0;
 390              		.loc 2 28 27 is_stmt 1
 391              		.cfi_startproc
 392 01d8 130101FF 		addi	sp,sp,-16
 393              		.cfi_def_cfa_offset 16
 394 01dc 23348100 		sd	s0,8(sp)
 395              		.cfi_offset 8, -8
 396 01e0 13040101 		addi	s0,sp,16
 397              		.cfi_def_cfa 8, 0
  29:src/syscall_cpp.cpp **** }
 398              		.loc 2 29 5
  30:src/syscall_cpp.cpp **** 
 399              		.loc 2 30 1 is_stmt 0
 400 01e4 13050000 		li	a0,0
 401 01e8 03348100 		ld	s0,8(sp)
 402              		.cfi_restore 8
 403              		.cfi_def_cfa 2, 16
 404 01ec 13010101 		addi	sp,sp,16
 405              		.cfi_def_cfa_offset 0
 406 01f0 67800000 		jr	ra
 407              		.cfi_endproc
 408              	.LFE50:
 410              		.align	2
 411              		.globl	_ZN6ThreadC2Ev
 413              	_ZN6ThreadC2Ev:
 414              	.LFB52:
  32:src/syscall_cpp.cpp ****     thread_create( &myHandle, Thread::runWrapper, this);
 415              		.loc 2 32 1 is_stmt 1
 416              		.cfi_startproc
 417              	.LVL27:
 418 01f4 130101FF 		addi	sp,sp,-16
 419              		.cfi_def_cfa_offset 16
 420 01f8 23341100 		sd	ra,8(sp)
 421 01fc 23308100 		sd	s0,0(sp)
 422              		.cfi_offset 1, -8
 423              		.cfi_offset 8, -16
 424 0200 13040101 		addi	s0,sp,16
 425              		.cfi_def_cfa 8, 0
 426              	.LBB11:
  32:src/syscall_cpp.cpp ****     thread_create( &myHandle, Thread::runWrapper, this);
 427              		.loc 2 32 16 is_stmt 0
 428 0204 97070000 		lla	a5,_ZTV6Thread+16
 428      93870700 
 429 020c 2330F500 		sd	a5,0(a0)
  33:src/syscall_cpp.cpp **** }
 430              		.loc 2 33 5 is_stmt 1
  33:src/syscall_cpp.cpp **** }
 431              		.loc 2 33 18 is_stmt 0
 432 0210 13060500 		mv	a2,a0
 433 0214 97050000 		lla	a1,_ZN6Thread10runWrapperEPv
 433      93850500 
 434 021c 13058500 		addi	a0,a0,8
 435              	.LVL28:
 436 0220 97000000 		call	_Z13thread_createPP3TCBPFvPvES2_@plt
GAS LISTING /tmp/ccxVa4lr.s 			page 11


 436      E7800000 
 437              	.LVL29:
 438              	.LBE11:
  34:src/syscall_cpp.cpp **** 
 439              		.loc 2 34 1
 440 0228 83308100 		ld	ra,8(sp)
 441              		.cfi_restore 1
 442 022c 03340100 		ld	s0,0(sp)
 443              		.cfi_restore 8
 444              		.cfi_def_cfa 2, 16
 445 0230 13010101 		addi	sp,sp,16
 446              		.cfi_def_cfa_offset 0
 447 0234 67800000 		jr	ra
 448              		.cfi_endproc
 449              	.LFE52:
 451              		.globl	_ZN6ThreadC1Ev
 452              		.set	_ZN6ThreadC1Ev,_ZN6ThreadC2Ev
 453              		.align	2
 454              		.globl	_ZN9SemaphoreC2Ej
 456              	_ZN9SemaphoreC2Ej:
 457              	.LFB56:
  47:src/syscall_cpp.cpp ****     sem_open(&myHandle, init);
 458              		.loc 2 47 1 is_stmt 1
 459              		.cfi_startproc
 460              	.LVL30:
 461 0238 130101FF 		addi	sp,sp,-16
 462              		.cfi_def_cfa_offset 16
 463 023c 23341100 		sd	ra,8(sp)
 464 0240 23308100 		sd	s0,0(sp)
 465              		.cfi_offset 1, -8
 466              		.cfi_offset 8, -16
 467 0244 13040101 		addi	s0,sp,16
 468              		.cfi_def_cfa 8, 0
 469              	.LBB12:
  47:src/syscall_cpp.cpp ****     sem_open(&myHandle, init);
 470              		.loc 2 47 39 is_stmt 0
 471 0248 97070000 		lla	a5,_ZTV9Semaphore+16
 471      93870700 
 472 0250 2330F500 		sd	a5,0(a0)
  48:src/syscall_cpp.cpp **** }
 473              		.loc 2 48 5 is_stmt 1
  48:src/syscall_cpp.cpp **** }
 474              		.loc 2 48 13 is_stmt 0
 475 0254 13058500 		addi	a0,a0,8
 476              	.LVL31:
 477 0258 97000000 		call	_Z8sem_openPP4_semj@plt
 477      E7800000 
 478              	.LVL32:
 479              	.LBE12:
  49:src/syscall_cpp.cpp **** 
 480              		.loc 2 49 1
 481 0260 83308100 		ld	ra,8(sp)
 482              		.cfi_restore 1
 483 0264 03340100 		ld	s0,0(sp)
 484              		.cfi_restore 8
 485              		.cfi_def_cfa 2, 16
 486 0268 13010101 		addi	sp,sp,16
GAS LISTING /tmp/ccxVa4lr.s 			page 12


 487              		.cfi_def_cfa_offset 0
 488 026c 67800000 		jr	ra
 489              		.cfi_endproc
 490              	.LFE56:
 492              		.globl	_ZN9SemaphoreC1Ej
 493              		.set	_ZN9SemaphoreC1Ej,_ZN9SemaphoreC2Ej
 494              		.align	2
 495              		.globl	_ZN9Semaphore4waitEv
 497              	_ZN9Semaphore4waitEv:
 498              	.LFB62:
  54:src/syscall_cpp.cpp **** 
  55:src/syscall_cpp.cpp **** int Semaphore::wait() {
 499              		.loc 2 55 23 is_stmt 1
 500              		.cfi_startproc
 501              	.LVL33:
 502 0270 130101FF 		addi	sp,sp,-16
 503              		.cfi_def_cfa_offset 16
 504 0274 23341100 		sd	ra,8(sp)
 505 0278 23308100 		sd	s0,0(sp)
 506              		.cfi_offset 1, -8
 507              		.cfi_offset 8, -16
 508 027c 13040101 		addi	s0,sp,16
 509              		.cfi_def_cfa 8, 0
  56:src/syscall_cpp.cpp ****     return sem_wait(myHandle);
 510              		.loc 2 56 5
 511              		.loc 2 56 20 is_stmt 0
 512 0280 03358500 		ld	a0,8(a0)
 513              	.LVL34:
 514 0284 97000000 		call	_Z8sem_waitP4_sem@plt
 514      E7800000 
 515              	.LVL35:
  57:src/syscall_cpp.cpp **** }
 516              		.loc 2 57 1
 517 028c 83308100 		ld	ra,8(sp)
 518              		.cfi_restore 1
 519 0290 03340100 		ld	s0,0(sp)
 520              		.cfi_restore 8
 521              		.cfi_def_cfa 2, 16
 522 0294 13010101 		addi	sp,sp,16
 523              		.cfi_def_cfa_offset 0
 524 0298 67800000 		jr	ra
 525              		.cfi_endproc
 526              	.LFE62:
 528              		.align	2
 529              		.globl	_ZN9Semaphore6signalEv
 531              	_ZN9Semaphore6signalEv:
 532              	.LFB63:
  58:src/syscall_cpp.cpp **** 
  59:src/syscall_cpp.cpp **** int Semaphore::signal() {
 533              		.loc 2 59 25 is_stmt 1
 534              		.cfi_startproc
 535              	.LVL36:
 536 029c 130101FF 		addi	sp,sp,-16
 537              		.cfi_def_cfa_offset 16
 538 02a0 23341100 		sd	ra,8(sp)
 539 02a4 23308100 		sd	s0,0(sp)
 540              		.cfi_offset 1, -8
GAS LISTING /tmp/ccxVa4lr.s 			page 13


 541              		.cfi_offset 8, -16
 542 02a8 13040101 		addi	s0,sp,16
 543              		.cfi_def_cfa 8, 0
  60:src/syscall_cpp.cpp ****     return sem_signal(myHandle);
 544              		.loc 2 60 5
 545              		.loc 2 60 22 is_stmt 0
 546 02ac 03358500 		ld	a0,8(a0)
 547              	.LVL37:
 548 02b0 97000000 		call	_Z10sem_signalP4_sem@plt
 548      E7800000 
 549              	.LVL38:
  61:src/syscall_cpp.cpp **** }
 550              		.loc 2 61 1
 551 02b8 83308100 		ld	ra,8(sp)
 552              		.cfi_restore 1
 553 02bc 03340100 		ld	s0,0(sp)
 554              		.cfi_restore 8
 555              		.cfi_def_cfa 2, 16
 556 02c0 13010101 		addi	sp,sp,16
 557              		.cfi_def_cfa_offset 0
 558 02c4 67800000 		jr	ra
 559              		.cfi_endproc
 560              	.LFE63:
 562              		.align	2
 563              		.globl	_ZN7Console4getcEv
 565              	_ZN7Console4getcEv:
 566              	.LFB64:
  62:src/syscall_cpp.cpp **** 
  63:src/syscall_cpp.cpp **** //Console
  64:src/syscall_cpp.cpp **** 
  65:src/syscall_cpp.cpp **** char Console::getc() {
 567              		.loc 2 65 22 is_stmt 1
 568              		.cfi_startproc
 569 02c8 130101FF 		addi	sp,sp,-16
 570              		.cfi_def_cfa_offset 16
 571 02cc 23341100 		sd	ra,8(sp)
 572 02d0 23308100 		sd	s0,0(sp)
 573              		.cfi_offset 1, -8
 574              		.cfi_offset 8, -16
 575 02d4 13040101 		addi	s0,sp,16
 576              		.cfi_def_cfa 8, 0
  66:src/syscall_cpp.cpp ****     return ::getc();
 577              		.loc 2 66 5
 578              		.loc 2 66 18 is_stmt 0
 579 02d8 97000000 		call	_Z4getcv@plt
 579      E7800000 
 580              	.LVL39:
  67:src/syscall_cpp.cpp **** }
 581              		.loc 2 67 1
 582 02e0 83308100 		ld	ra,8(sp)
 583              		.cfi_restore 1
 584 02e4 03340100 		ld	s0,0(sp)
 585              		.cfi_restore 8
 586              		.cfi_def_cfa 2, 16
 587 02e8 13010101 		addi	sp,sp,16
 588              		.cfi_def_cfa_offset 0
 589 02ec 67800000 		jr	ra
GAS LISTING /tmp/ccxVa4lr.s 			page 14


 590              		.cfi_endproc
 591              	.LFE64:
 593              		.align	2
 594              		.globl	_ZN7Console4putcEc
 596              	_ZN7Console4putcEc:
 597              	.LFB65:
  68:src/syscall_cpp.cpp **** 
  69:src/syscall_cpp.cpp **** void Console::putc(char chr) {
 598              		.loc 2 69 30 is_stmt 1
 599              		.cfi_startproc
 600              	.LVL40:
 601 02f0 130101FF 		addi	sp,sp,-16
 602              		.cfi_def_cfa_offset 16
 603 02f4 23341100 		sd	ra,8(sp)
 604 02f8 23308100 		sd	s0,0(sp)
 605              		.cfi_offset 1, -8
 606              		.cfi_offset 8, -16
 607 02fc 13040101 		addi	s0,sp,16
 608              		.cfi_def_cfa 8, 0
  70:src/syscall_cpp.cpp ****     ::putc(chr);
 609              		.loc 2 70 5
 610              		.loc 2 70 11 is_stmt 0
 611 0300 97000000 		call	_Z4putcc@plt
 611      E7800000 
 612              	.LVL41:
  71:src/syscall_cpp.cpp **** }
 613              		.loc 2 71 1
 614 0308 83308100 		ld	ra,8(sp)
 615              		.cfi_restore 1
 616 030c 03340100 		ld	s0,0(sp)
 617              		.cfi_restore 8
 618              		.cfi_def_cfa 2, 16
 619 0310 13010101 		addi	sp,sp,16
 620              		.cfi_def_cfa_offset 0
 621 0314 67800000 		jr	ra
 622              		.cfi_endproc
 623              	.LFE65:
 625              		.weak	_ZTV6Thread
 626              		.section	.data.rel.ro.local._ZTV6Thread,"awG",@progbits,_ZTV6Thread,comdat
 627              		.align	3
 630              	_ZTV6Thread:
 631 0000 00000000 		.dword	0
 631      00000000 
 632 0008 00000000 		.dword	0
 632      00000000 
 633 0010 00000000 		.dword	_ZN6ThreadD1Ev
 633      00000000 
 634 0018 00000000 		.dword	_ZN6ThreadD0Ev
 634      00000000 
 635 0020 00000000 		.dword	_ZN6Thread3runEv
 635      00000000 
 636              		.weak	_ZTV9Semaphore
 637              		.section	.data.rel.ro.local._ZTV9Semaphore,"awG",@progbits,_ZTV9Semaphore,comdat
 638              		.align	3
 641              	_ZTV9Semaphore:
 642 0000 00000000 		.dword	0
 642      00000000 
GAS LISTING /tmp/ccxVa4lr.s 			page 15


 643 0008 00000000 		.dword	0
 643      00000000 
 644 0010 00000000 		.dword	_ZN9SemaphoreD1Ev
 644      00000000 
 645 0018 00000000 		.dword	_ZN9SemaphoreD0Ev
 645      00000000 
 646              		.text
 647              	.Letext0:
 648              		.file 4 "src/../h/../lib/hw.h"
 649              		.file 5 "src/../h/list.hpp"
 650              		.file 6 "src/../h/_sem.hpp"
 651              		.file 7 "src/../h/syscall_c.hpp"
 3961              		.align	3
 3964              	DW.ref.__gxx_personality_v0:
 3965 0000 00000000 		.dword	__gxx_personality_v0
 3965      00000000 
 3966              		.ident	"GCC: (Ubuntu 9.4.0-1ubuntu1~20.04) 9.4.0"
 3967              		.section	.note.GNU-stack,"",@progbits
GAS LISTING /tmp/ccxVa4lr.s 			page 16


DEFINED SYMBOLS
                            *ABS*:0000000000000000 syscall_cpp.cpp
     /tmp/ccxVa4lr.s:10     .text._ZN6Thread3runEv:0000000000000000 _ZN6Thread3runEv
     /tmp/ccxVa4lr.s:14     .text._ZN6Thread3runEv:0000000000000000 .L0 
     /tmp/ccxVa4lr.s:16     .text._ZN6Thread3runEv:0000000000000000 .L0 
     /tmp/ccxVa4lr.s:17     .text._ZN6Thread3runEv:0000000000000004 .L0 
     /tmp/ccxVa4lr.s:19     .text._ZN6Thread3runEv:0000000000000008 .L0 
     /tmp/ccxVa4lr.s:21     .text._ZN6Thread3runEv:000000000000000c .L0 
     /tmp/ccxVa4lr.s:23     .text._ZN6Thread3runEv:000000000000000c .L0 
     /tmp/ccxVa4lr.s:24     .text._ZN6Thread3runEv:0000000000000010 .L0 
     /tmp/ccxVa4lr.s:25     .text._ZN6Thread3runEv:0000000000000010 .L0 
     /tmp/ccxVa4lr.s:27     .text._ZN6Thread3runEv:0000000000000014 .L0 
     /tmp/ccxVa4lr.s:29     .text._ZN6Thread3runEv:0000000000000018 .L0 
     /tmp/ccxVa4lr.s:36     .text:0000000000000000 _ZN6Thread10runWrapperEPv
     /tmp/ccxVa4lr.s:40     .text:0000000000000000 .L0 
     /tmp/ccxVa4lr.s:42     .text:0000000000000000 .L0 
     /tmp/ccxVa4lr.s:43     .text:0000000000000004 .L0 
     /tmp/ccxVa4lr.s:46     .text:000000000000000c .L0 
     /tmp/ccxVa4lr.s:47     .text:000000000000000c .L0 
     /tmp/ccxVa4lr.s:49     .text:0000000000000010 .L0 
     /tmp/ccxVa4lr.s:51     .text:0000000000000010 .L0 
     /tmp/ccxVa4lr.s:52     .text:0000000000000010 .L0 
     /tmp/ccxVa4lr.s:55     .text:0000000000000018 .L0 
     /tmp/ccxVa4lr.s:58     .text:000000000000001c .L0 
     /tmp/ccxVa4lr.s:59     .text:0000000000000020 .L0 
     /tmp/ccxVa4lr.s:61     .text:0000000000000024 .L0 
     /tmp/ccxVa4lr.s:62     .text:0000000000000024 .L0 
     /tmp/ccxVa4lr.s:64     .text:0000000000000028 .L0 
     /tmp/ccxVa4lr.s:66     .text:000000000000002c .L0 
     /tmp/ccxVa4lr.s:72     .text:000000000000002c _ZN6ThreadD2Ev
     /tmp/ccxVa4lr.s:75     .text:000000000000002c .L0 
     /tmp/ccxVa4lr.s:3964   .data.rel.local.DW.ref.__gxx_personality_v0:0000000000000000 DW.ref.__gxx_personality_v0
     /tmp/ccxVa4lr.s:79     .text:000000000000002c .L0 
     /tmp/ccxVa4lr.s:80     .text:0000000000000030 .L0 
     /tmp/ccxVa4lr.s:84     .text:000000000000003c .L0 
     /tmp/ccxVa4lr.s:85     .text:000000000000003c .L0 
     /tmp/ccxVa4lr.s:86     .text:000000000000003c .L0 
     /tmp/ccxVa4lr.s:88     .text:0000000000000040 .L0 
     /tmp/ccxVa4lr.s:630    .data.rel.ro.local._ZTV6Thread:0000000000000000 _ZTV6Thread
     /tmp/ccxVa4lr.s:92     .text:0000000000000044 .L0 
     /tmp/ccxVa4lr.s:95     .text:0000000000000050 .L0 
     /tmp/ccxVa4lr.s:96     .text:0000000000000050 .L0 
     /tmp/ccxVa4lr.s:99     .text:0000000000000058 .L0 
     /tmp/ccxVa4lr.s:100    .text:0000000000000058 .L0 
     /tmp/ccxVa4lr.s:103    .text:000000000000005c .L0 
     /tmp/ccxVa4lr.s:109    .text:0000000000000060 .L0 
     /tmp/ccxVa4lr.s:110    .text:0000000000000060 .L0 
     /tmp/ccxVa4lr.s:112    .text:0000000000000064 .L0 
     /tmp/ccxVa4lr.s:114    .text:0000000000000068 .L0 
     /tmp/ccxVa4lr.s:120    .text:0000000000000070 .L0 
     /tmp/ccxVa4lr.s:126    .text:000000000000007c .L0 
     /tmp/ccxVa4lr.s:127    .text:0000000000000080 .L0 
     /tmp/ccxVa4lr.s:129    .text:0000000000000084 .L0 
     /tmp/ccxVa4lr.s:130    .text:0000000000000084 .L0 
     /tmp/ccxVa4lr.s:132    .text:0000000000000088 .L0 
     /tmp/ccxVa4lr.s:134    .text:000000000000008c .L0 
     /tmp/ccxVa4lr.s:136    .text:0000000000000090 .L0 
GAS LISTING /tmp/ccxVa4lr.s 			page 17


     /tmp/ccxVa4lr.s:72     .text:000000000000002c _ZN6ThreadD1Ev
     /tmp/ccxVa4lr.s:152    .text:0000000000000090 _ZN6ThreadD0Ev
     /tmp/ccxVa4lr.s:155    .text:0000000000000090 .L0 
     /tmp/ccxVa4lr.s:157    .text:0000000000000090 .L0 
     /tmp/ccxVa4lr.s:158    .text:0000000000000094 .L0 
     /tmp/ccxVa4lr.s:162    .text:00000000000000a0 .L0 
     /tmp/ccxVa4lr.s:163    .text:00000000000000a0 .L0 
     /tmp/ccxVa4lr.s:164    .text:00000000000000a0 .L0 
     /tmp/ccxVa4lr.s:166    .text:00000000000000a4 .L0 
     /tmp/ccxVa4lr.s:169    .text:00000000000000a8 .L0 
     /tmp/ccxVa4lr.s:175    .text:00000000000000c0 .L0 
     /tmp/ccxVa4lr.s:177    .text:00000000000000c4 .L0 
     /tmp/ccxVa4lr.s:178    .text:00000000000000c4 .L0 
     /tmp/ccxVa4lr.s:180    .text:00000000000000c8 .L0 
     /tmp/ccxVa4lr.s:183    .text:00000000000000cc .L0 
     /tmp/ccxVa4lr.s:185    .text:00000000000000d0 .L0 
     /tmp/ccxVa4lr.s:191    .text:00000000000000d0 _ZN9SemaphoreD2Ev
     /tmp/ccxVa4lr.s:194    .text:00000000000000d0 .L0 
     /tmp/ccxVa4lr.s:198    .text:00000000000000d0 .L0 
     /tmp/ccxVa4lr.s:199    .text:00000000000000d4 .L0 
     /tmp/ccxVa4lr.s:202    .text:00000000000000dc .L0 
     /tmp/ccxVa4lr.s:203    .text:00000000000000dc .L0 
     /tmp/ccxVa4lr.s:205    .text:00000000000000e0 .L0 
     /tmp/ccxVa4lr.s:641    .data.rel.ro.local._ZTV9Semaphore:0000000000000000 _ZTV9Semaphore
     /tmp/ccxVa4lr.s:208    .text:00000000000000e0 .L0 
     /tmp/ccxVa4lr.s:211    .text:00000000000000ec .L0 
     /tmp/ccxVa4lr.s:212    .text:00000000000000ec .L0 
     /tmp/ccxVa4lr.s:218    .text:00000000000000f8 .L0 
     /tmp/ccxVa4lr.s:219    .text:00000000000000fc .L0 
     /tmp/ccxVa4lr.s:221    .text:0000000000000100 .L0 
     /tmp/ccxVa4lr.s:222    .text:0000000000000100 .L0 
     /tmp/ccxVa4lr.s:224    .text:0000000000000104 .L0 
     /tmp/ccxVa4lr.s:226    .text:0000000000000108 .L0 
     /tmp/ccxVa4lr.s:191    .text:00000000000000d0 _ZN9SemaphoreD1Ev
     /tmp/ccxVa4lr.s:241    .text:0000000000000108 _ZN9SemaphoreD0Ev
     /tmp/ccxVa4lr.s:244    .text:0000000000000108 .L0 
     /tmp/ccxVa4lr.s:246    .text:0000000000000108 .L0 
     /tmp/ccxVa4lr.s:247    .text:000000000000010c .L0 
     /tmp/ccxVa4lr.s:251    .text:0000000000000118 .L0 
     /tmp/ccxVa4lr.s:252    .text:0000000000000118 .L0 
     /tmp/ccxVa4lr.s:253    .text:0000000000000118 .L0 
     /tmp/ccxVa4lr.s:255    .text:000000000000011c .L0 
     /tmp/ccxVa4lr.s:258    .text:0000000000000120 .L0 
     /tmp/ccxVa4lr.s:264    .text:0000000000000138 .L0 
     /tmp/ccxVa4lr.s:266    .text:000000000000013c .L0 
     /tmp/ccxVa4lr.s:267    .text:000000000000013c .L0 
     /tmp/ccxVa4lr.s:269    .text:0000000000000140 .L0 
     /tmp/ccxVa4lr.s:272    .text:0000000000000144 .L0 
     /tmp/ccxVa4lr.s:274    .text:0000000000000148 .L0 
     /tmp/ccxVa4lr.s:280    .text:0000000000000148 _ZN6ThreadC2EPFvPvES0_
     /tmp/ccxVa4lr.s:283    .text:0000000000000148 .L0 
     /tmp/ccxVa4lr.s:285    .text:0000000000000148 .L0 
     /tmp/ccxVa4lr.s:286    .text:000000000000014c .L0 
     /tmp/ccxVa4lr.s:289    .text:0000000000000154 .L0 
     /tmp/ccxVa4lr.s:290    .text:0000000000000154 .L0 
     /tmp/ccxVa4lr.s:292    .text:0000000000000158 .L0 
     /tmp/ccxVa4lr.s:295    .text:0000000000000158 .L0 
GAS LISTING /tmp/ccxVa4lr.s 			page 18


     /tmp/ccxVa4lr.s:298    .text:0000000000000164 .L0 
     /tmp/ccxVa4lr.s:299    .text:0000000000000164 .L0 
     /tmp/ccxVa4lr.s:305    .text:0000000000000170 .L0 
     /tmp/ccxVa4lr.s:306    .text:0000000000000174 .L0 
     /tmp/ccxVa4lr.s:308    .text:0000000000000178 .L0 
     /tmp/ccxVa4lr.s:309    .text:0000000000000178 .L0 
     /tmp/ccxVa4lr.s:311    .text:000000000000017c .L0 
     /tmp/ccxVa4lr.s:313    .text:0000000000000180 .L0 
     /tmp/ccxVa4lr.s:280    .text:0000000000000148 _ZN6ThreadC1EPFvPvES0_
     /tmp/ccxVa4lr.s:321    .text:0000000000000180 _ZN6Thread5startEv
     /tmp/ccxVa4lr.s:324    .text:0000000000000180 .L0 
     /tmp/ccxVa4lr.s:326    .text:0000000000000180 .L0 
     /tmp/ccxVa4lr.s:327    .text:0000000000000184 .L0 
     /tmp/ccxVa4lr.s:330    .text:000000000000018c .L0 
     /tmp/ccxVa4lr.s:331    .text:000000000000018c .L0 
     /tmp/ccxVa4lr.s:333    .text:0000000000000190 .L0 
     /tmp/ccxVa4lr.s:335    .text:0000000000000190 .L0 
     /tmp/ccxVa4lr.s:336    .text:0000000000000190 .L0 
     /tmp/ccxVa4lr.s:341    .text:000000000000019c .L0 
     /tmp/ccxVa4lr.s:342    .text:000000000000019c .L0 
     /tmp/ccxVa4lr.s:344    .text:00000000000001a4 .L0 
     /tmp/ccxVa4lr.s:346    .text:00000000000001a8 .L0 
     /tmp/ccxVa4lr.s:347    .text:00000000000001a8 .L0 
     /tmp/ccxVa4lr.s:349    .text:00000000000001ac .L0 
     /tmp/ccxVa4lr.s:351    .text:00000000000001b0 .L0 
     /tmp/ccxVa4lr.s:357    .text:00000000000001b0 _ZN6Thread8dispatchEv
     /tmp/ccxVa4lr.s:360    .text:00000000000001b0 .L0 
     /tmp/ccxVa4lr.s:361    .text:00000000000001b0 .L0 
     /tmp/ccxVa4lr.s:362    .text:00000000000001b4 .L0 
     /tmp/ccxVa4lr.s:365    .text:00000000000001bc .L0 
     /tmp/ccxVa4lr.s:366    .text:00000000000001bc .L0 
     /tmp/ccxVa4lr.s:368    .text:00000000000001c0 .L0 
     /tmp/ccxVa4lr.s:370    .text:00000000000001c0 .L0 
     /tmp/ccxVa4lr.s:371    .text:00000000000001c0 .L0 
     /tmp/ccxVa4lr.s:374    .text:00000000000001c8 .L0 
     /tmp/ccxVa4lr.s:375    .text:00000000000001cc .L0 
     /tmp/ccxVa4lr.s:377    .text:00000000000001d0 .L0 
     /tmp/ccxVa4lr.s:378    .text:00000000000001d0 .L0 
     /tmp/ccxVa4lr.s:380    .text:00000000000001d4 .L0 
     /tmp/ccxVa4lr.s:382    .text:00000000000001d8 .L0 
     /tmp/ccxVa4lr.s:388    .text:00000000000001d8 _ZN6Thread5sleepEm
     /tmp/ccxVa4lr.s:391    .text:00000000000001d8 .L0 
     /tmp/ccxVa4lr.s:392    .text:00000000000001d8 .L0 
     /tmp/ccxVa4lr.s:393    .text:00000000000001dc .L0 
     /tmp/ccxVa4lr.s:395    .text:00000000000001e0 .L0 
     /tmp/ccxVa4lr.s:397    .text:00000000000001e4 .L0 
     /tmp/ccxVa4lr.s:399    .text:00000000000001e4 .L0 
     /tmp/ccxVa4lr.s:400    .text:00000000000001e4 .L0 
     /tmp/ccxVa4lr.s:402    .text:00000000000001ec .L0 
     /tmp/ccxVa4lr.s:403    .text:00000000000001ec .L0 
     /tmp/ccxVa4lr.s:405    .text:00000000000001f0 .L0 
     /tmp/ccxVa4lr.s:407    .text:00000000000001f4 .L0 
     /tmp/ccxVa4lr.s:413    .text:00000000000001f4 _ZN6ThreadC2Ev
     /tmp/ccxVa4lr.s:416    .text:00000000000001f4 .L0 
     /tmp/ccxVa4lr.s:418    .text:00000000000001f4 .L0 
     /tmp/ccxVa4lr.s:419    .text:00000000000001f8 .L0 
     /tmp/ccxVa4lr.s:422    .text:0000000000000200 .L0 
GAS LISTING /tmp/ccxVa4lr.s 			page 19


     /tmp/ccxVa4lr.s:423    .text:0000000000000200 .L0 
     /tmp/ccxVa4lr.s:425    .text:0000000000000204 .L0 
     /tmp/ccxVa4lr.s:428    .text:0000000000000204 .L0 
     /tmp/ccxVa4lr.s:431    .text:0000000000000210 .L0 
     /tmp/ccxVa4lr.s:432    .text:0000000000000210 .L0 
     /tmp/ccxVa4lr.s:440    .text:0000000000000228 .L0 
     /tmp/ccxVa4lr.s:441    .text:000000000000022c .L0 
     /tmp/ccxVa4lr.s:443    .text:0000000000000230 .L0 
     /tmp/ccxVa4lr.s:444    .text:0000000000000230 .L0 
     /tmp/ccxVa4lr.s:446    .text:0000000000000234 .L0 
     /tmp/ccxVa4lr.s:448    .text:0000000000000238 .L0 
     /tmp/ccxVa4lr.s:413    .text:00000000000001f4 _ZN6ThreadC1Ev
     /tmp/ccxVa4lr.s:456    .text:0000000000000238 _ZN9SemaphoreC2Ej
     /tmp/ccxVa4lr.s:459    .text:0000000000000238 .L0 
     /tmp/ccxVa4lr.s:461    .text:0000000000000238 .L0 
     /tmp/ccxVa4lr.s:462    .text:000000000000023c .L0 
     /tmp/ccxVa4lr.s:465    .text:0000000000000244 .L0 
     /tmp/ccxVa4lr.s:466    .text:0000000000000244 .L0 
     /tmp/ccxVa4lr.s:468    .text:0000000000000248 .L0 
     /tmp/ccxVa4lr.s:471    .text:0000000000000248 .L0 
     /tmp/ccxVa4lr.s:474    .text:0000000000000254 .L0 
     /tmp/ccxVa4lr.s:475    .text:0000000000000254 .L0 
     /tmp/ccxVa4lr.s:481    .text:0000000000000260 .L0 
     /tmp/ccxVa4lr.s:482    .text:0000000000000264 .L0 
     /tmp/ccxVa4lr.s:484    .text:0000000000000268 .L0 
     /tmp/ccxVa4lr.s:485    .text:0000000000000268 .L0 
     /tmp/ccxVa4lr.s:487    .text:000000000000026c .L0 
     /tmp/ccxVa4lr.s:489    .text:0000000000000270 .L0 
     /tmp/ccxVa4lr.s:456    .text:0000000000000238 _ZN9SemaphoreC1Ej
     /tmp/ccxVa4lr.s:497    .text:0000000000000270 _ZN9Semaphore4waitEv
     /tmp/ccxVa4lr.s:500    .text:0000000000000270 .L0 
     /tmp/ccxVa4lr.s:502    .text:0000000000000270 .L0 
     /tmp/ccxVa4lr.s:503    .text:0000000000000274 .L0 
     /tmp/ccxVa4lr.s:506    .text:000000000000027c .L0 
     /tmp/ccxVa4lr.s:507    .text:000000000000027c .L0 
     /tmp/ccxVa4lr.s:509    .text:0000000000000280 .L0 
     /tmp/ccxVa4lr.s:511    .text:0000000000000280 .L0 
     /tmp/ccxVa4lr.s:512    .text:0000000000000280 .L0 
     /tmp/ccxVa4lr.s:517    .text:000000000000028c .L0 
     /tmp/ccxVa4lr.s:518    .text:0000000000000290 .L0 
     /tmp/ccxVa4lr.s:520    .text:0000000000000294 .L0 
     /tmp/ccxVa4lr.s:521    .text:0000000000000294 .L0 
     /tmp/ccxVa4lr.s:523    .text:0000000000000298 .L0 
     /tmp/ccxVa4lr.s:525    .text:000000000000029c .L0 
     /tmp/ccxVa4lr.s:531    .text:000000000000029c _ZN9Semaphore6signalEv
     /tmp/ccxVa4lr.s:534    .text:000000000000029c .L0 
     /tmp/ccxVa4lr.s:536    .text:000000000000029c .L0 
     /tmp/ccxVa4lr.s:537    .text:00000000000002a0 .L0 
     /tmp/ccxVa4lr.s:540    .text:00000000000002a8 .L0 
     /tmp/ccxVa4lr.s:541    .text:00000000000002a8 .L0 
     /tmp/ccxVa4lr.s:543    .text:00000000000002ac .L0 
     /tmp/ccxVa4lr.s:545    .text:00000000000002ac .L0 
     /tmp/ccxVa4lr.s:546    .text:00000000000002ac .L0 
     /tmp/ccxVa4lr.s:551    .text:00000000000002b8 .L0 
     /tmp/ccxVa4lr.s:552    .text:00000000000002bc .L0 
     /tmp/ccxVa4lr.s:554    .text:00000000000002c0 .L0 
     /tmp/ccxVa4lr.s:555    .text:00000000000002c0 .L0 
GAS LISTING /tmp/ccxVa4lr.s 			page 20


     /tmp/ccxVa4lr.s:557    .text:00000000000002c4 .L0 
     /tmp/ccxVa4lr.s:559    .text:00000000000002c8 .L0 
     /tmp/ccxVa4lr.s:565    .text:00000000000002c8 _ZN7Console4getcEv
     /tmp/ccxVa4lr.s:568    .text:00000000000002c8 .L0 
     /tmp/ccxVa4lr.s:569    .text:00000000000002c8 .L0 
     /tmp/ccxVa4lr.s:570    .text:00000000000002cc .L0 
     /tmp/ccxVa4lr.s:573    .text:00000000000002d4 .L0 
     /tmp/ccxVa4lr.s:574    .text:00000000000002d4 .L0 
     /tmp/ccxVa4lr.s:576    .text:00000000000002d8 .L0 
     /tmp/ccxVa4lr.s:578    .text:00000000000002d8 .L0 
     /tmp/ccxVa4lr.s:579    .text:00000000000002d8 .L0 
     /tmp/ccxVa4lr.s:582    .text:00000000000002e0 .L0 
     /tmp/ccxVa4lr.s:583    .text:00000000000002e4 .L0 
     /tmp/ccxVa4lr.s:585    .text:00000000000002e8 .L0 
     /tmp/ccxVa4lr.s:586    .text:00000000000002e8 .L0 
     /tmp/ccxVa4lr.s:588    .text:00000000000002ec .L0 
     /tmp/ccxVa4lr.s:590    .text:00000000000002f0 .L0 
     /tmp/ccxVa4lr.s:596    .text:00000000000002f0 _ZN7Console4putcEc
     /tmp/ccxVa4lr.s:599    .text:00000000000002f0 .L0 
     /tmp/ccxVa4lr.s:601    .text:00000000000002f0 .L0 
     /tmp/ccxVa4lr.s:602    .text:00000000000002f4 .L0 
     /tmp/ccxVa4lr.s:605    .text:00000000000002fc .L0 
     /tmp/ccxVa4lr.s:606    .text:00000000000002fc .L0 
     /tmp/ccxVa4lr.s:608    .text:0000000000000300 .L0 
     /tmp/ccxVa4lr.s:610    .text:0000000000000300 .L0 
     /tmp/ccxVa4lr.s:611    .text:0000000000000300 .L0 
     /tmp/ccxVa4lr.s:614    .text:0000000000000308 .L0 
     /tmp/ccxVa4lr.s:615    .text:000000000000030c .L0 
     /tmp/ccxVa4lr.s:617    .text:0000000000000310 .L0 
     /tmp/ccxVa4lr.s:618    .text:0000000000000310 .L0 
     /tmp/ccxVa4lr.s:620    .text:0000000000000314 .L0 
     /tmp/ccxVa4lr.s:622    .text:0000000000000318 .L0 
     /tmp/ccxVa4lr.s:32     .text._ZN6Thread3runEv:0000000000000018 .L0 
     /tmp/ccxVa4lr.s:652    .text:0000000000000318 .L0 
     /tmp/ccxVa4lr.s:92     .text:0000000000000044 .L0 
     /tmp/ccxVa4lr.s:208    .text:00000000000000e0 .L0 
     /tmp/ccxVa4lr.s:295    .text:0000000000000158 .L0 
     /tmp/ccxVa4lr.s:428    .text:0000000000000204 .L0 
     /tmp/ccxVa4lr.s:433    .text:0000000000000214 .L0 
     /tmp/ccxVa4lr.s:471    .text:0000000000000248 .L0 
     /tmp/ccxVa4lr.s:123    .text:000000000000007c .L5
     /tmp/ccxVa4lr.s:116    .text:0000000000000070 .L7
     /tmp/ccxVa4lr.s:2190   .debug_abbrev:0000000000000000 .Ldebug_abbrev0
     /tmp/ccxVa4lr.s:3900   .debug_str:0000000000000726 .LASF140
     /tmp/ccxVa4lr.s:3746   .debug_str:000000000000033f .LASF141
     /tmp/ccxVa4lr.s:3724   .debug_str:00000000000002a4 .LASF142
     /tmp/ccxVa4lr.s:3630   .debug_ranges:0000000000000000 .Ldebug_ranges0
     /tmp/ccxVa4lr.s:3638   .debug_line:0000000000000000 .Ldebug_line0
     /tmp/ccxVa4lr.s:3734   .debug_str:00000000000002f2 .LASF0
     /tmp/ccxVa4lr.s:3758   .debug_str:00000000000003aa .LASF1
     /tmp/ccxVa4lr.s:3834   .debug_str:000000000000058c .LASF2
     /tmp/ccxVa4lr.s:3844   .debug_str:00000000000005d2 .LASF4
     /tmp/ccxVa4lr.s:3748   .debug_str:0000000000000353 .LASF3
     /tmp/ccxVa4lr.s:3654   .debug_str:0000000000000078 .LASF5
     /tmp/ccxVa4lr.s:3812   .debug_str:000000000000050e .LASF6
     /tmp/ccxVa4lr.s:3808   .debug_str:00000000000004ee .LASF7
     /tmp/ccxVa4lr.s:3752   .debug_str:0000000000000382 .LASF8
GAS LISTING /tmp/ccxVa4lr.s 			page 21


     /tmp/ccxVa4lr.s:3720   .debug_str:0000000000000273 .LASF9
     /tmp/ccxVa4lr.s:3726   .debug_str:00000000000002c2 .LASF10
     /tmp/ccxVa4lr.s:3678   .debug_str:0000000000000123 .LASF11
     /tmp/ccxVa4lr.s:3716   .debug_str:000000000000025f .LASF12
     /tmp/ccxVa4lr.s:3688   .debug_str:000000000000017e .LASF13
     /tmp/ccxVa4lr.s:3676   .debug_str:0000000000000113 .LASF14
     /tmp/ccxVa4lr.s:3878   .debug_str:00000000000006a8 .LASF15
     /tmp/ccxVa4lr.s:3704   .debug_str:00000000000001e9 .LASF16
     /tmp/ccxVa4lr.s:3864   .debug_str:000000000000063f .LASF17
     /tmp/ccxVa4lr.s:3928   .debug_str:000000000000089c .LASF35
     /tmp/ccxVa4lr.s:3914   .debug_str:000000000000084d .LASF143
     /tmp/ccxVa4lr.s:3872   .debug_str:0000000000000691 .LASF18
     /tmp/ccxVa4lr.s:3794   .debug_str:000000000000049f .LASF19
     /tmp/ccxVa4lr.s:3786   .debug_str:000000000000046c .LASF20
     /tmp/ccxVa4lr.s:3866   .debug_str:0000000000000655 .LASF22
     /tmp/ccxVa4lr.s:3714   .debug_str:0000000000000248 .LASF27
     /tmp/ccxVa4lr.s:3838   .debug_str:00000000000005a9 .LASF87
     /tmp/ccxVa4lr.s:3830   .debug_str:0000000000000568 .LASF89
     /tmp/ccxVa4lr.s:3754   .debug_str:0000000000000395 .LASF21
     /tmp/ccxVa4lr.s:3672   .debug_str:00000000000000e7 .LASF23
     /tmp/ccxVa4lr.s:3770   .debug_str:000000000000040b .LASF24
     /tmp/ccxVa4lr.s:3706   .debug_str:00000000000001ff .LASF25
     /tmp/ccxVa4lr.s:3806   .debug_str:00000000000004e2 .LASF26
     /tmp/ccxVa4lr.s:3932   .debug_str:00000000000008b6 .LASF28
     /tmp/ccxVa4lr.s:3956   .debug_str:0000000000000982 .LASF29
     /tmp/ccxVa4lr.s:3946   .debug_str:0000000000000925 .LASF30
     /tmp/ccxVa4lr.s:3852   .debug_str:0000000000000601 .LASF31
     /tmp/ccxVa4lr.s:3750   .debug_str:0000000000000365 .LASF32
     /tmp/ccxVa4lr.s:3822   .debug_str:0000000000000541 .LASF33
     /tmp/ccxVa4lr.s:3646   .debug_str:0000000000000020 .LASF34
     /tmp/ccxVa4lr.s:3942   .debug_str:0000000000000918 .LASF144
     /tmp/ccxVa4lr.s:3814   .debug_str:0000000000000515 .LASF36
     /tmp/ccxVa4lr.s:3888   .debug_str:00000000000006d7 .LASF37
     /tmp/ccxVa4lr.s:3854   .debug_str:000000000000060c .LASF38
     /tmp/ccxVa4lr.s:3668   .debug_str:00000000000000d0 .LASF39
     /tmp/ccxVa4lr.s:3774   .debug_str:0000000000000429 .LASF40
     /tmp/ccxVa4lr.s:3884   .debug_str:00000000000006c4 .LASF145
     /tmp/ccxVa4lr.s:3846   .debug_str:00000000000005d9 .LASF41
     /tmp/ccxVa4lr.s:3650   .debug_str:0000000000000062 .LASF42
     /tmp/ccxVa4lr.s:3886   .debug_str:00000000000006cc .LASF43
     /tmp/ccxVa4lr.s:3792   .debug_str:0000000000000488 .LASF44
     /tmp/ccxVa4lr.s:3666   .debug_str:00000000000000c4 .LASF45
     /tmp/ccxVa4lr.s:3912   .debug_str:0000000000000836 .LASF46
     /tmp/ccxVa4lr.s:3788   .debug_str:0000000000000471 .LASF47
     /tmp/ccxVa4lr.s:3660   .debug_str:00000000000000a8 .LASF48
     /tmp/ccxVa4lr.s:3764   .debug_str:00000000000003d6 .LASF49
     /tmp/ccxVa4lr.s:3920   .debug_str:000000000000086a .LASF50
     /tmp/ccxVa4lr.s:3876   .debug_str:000000000000069b .LASF51
     /tmp/ccxVa4lr.s:3934   .debug_str:00000000000008d4 .LASF52
     /tmp/ccxVa4lr.s:3802   .debug_str:00000000000004c7 .LASF146
     /tmp/ccxVa4lr.s:3760   .debug_str:00000000000003bd .LASF103
     /tmp/ccxVa4lr.s:3904   .debug_str:00000000000007fd .LASF104
     /tmp/ccxVa4lr.s:3944   .debug_str:000000000000091f .LASF53
     /tmp/ccxVa4lr.s:3930   .debug_str:00000000000008a6 .LASF54
     /tmp/ccxVa4lr.s:3898   .debug_str:000000000000071e .LASF147
     /tmp/ccxVa4lr.s:3870   .debug_str:000000000000067a .LASF148
     /tmp/ccxVa4lr.s:3642   .debug_str:000000000000000b .LASF55
GAS LISTING /tmp/ccxVa4lr.s 			page 22


     /tmp/ccxVa4lr.s:3856   .debug_str:0000000000000614 .LASF56
     /tmp/ccxVa4lr.s:3910   .debug_str:000000000000082e .LASF57
     /tmp/ccxVa4lr.s:3908   .debug_str:0000000000000824 .LASF58
     /tmp/ccxVa4lr.s:3924   .debug_str:000000000000088c .LASF59
     /tmp/ccxVa4lr.s:3692   .debug_str:00000000000001a1 .LASF80
     /tmp/ccxVa4lr.s:3648   .debug_str:000000000000003a .LASF82
     /tmp/ccxVa4lr.s:3696   .debug_str:00000000000001c2 .LASF60
     /tmp/ccxVa4lr.s:3684   .debug_str:0000000000000159 .LASF62
     /tmp/ccxVa4lr.s:3848   .debug_str:00000000000005de .LASF149
     /tmp/ccxVa4lr.s:3670   .debug_str:00000000000000d9 .LASF61
     /tmp/ccxVa4lr.s:3766   .debug_str:00000000000003e3 .LASF63
     /tmp/ccxVa4lr.s:3842   .debug_str:00000000000005c7 .LASF64
     /tmp/ccxVa4lr.s:3938   .debug_str:0000000000000907 .LASF65
     /tmp/ccxVa4lr.s:3826   .debug_str:000000000000055a .LASF66
     /tmp/ccxVa4lr.s:3874   .debug_str:0000000000000696 .LASF67
     /tmp/ccxVa4lr.s:3702   .debug_str:00000000000001e3 .LASF68
     /tmp/ccxVa4lr.s:3780   .debug_str:0000000000000445 .LASF69
     /tmp/ccxVa4lr.s:3860   .debug_str:0000000000000622 .LASF70
     /tmp/ccxVa4lr.s:3798   .debug_str:00000000000004ab .LASF71
     /tmp/ccxVa4lr.s:3698   .debug_str:00000000000001cb .LASF72
     /tmp/ccxVa4lr.s:3790   .debug_str:0000000000000478 .LASF73
     /tmp/ccxVa4lr.s:3882   .debug_str:00000000000006bd .LASF74
     /tmp/ccxVa4lr.s:3868   .debug_str:0000000000000668 .LASF75
     /tmp/ccxVa4lr.s:3708   .debug_str:000000000000021b .LASF150
     /tmp/ccxVa4lr.s:3712   .debug_str:0000000000000242 .LASF76
     /tmp/ccxVa4lr.s:3926   .debug_str:0000000000000893 .LASF77
     /tmp/ccxVa4lr.s:3940   .debug_str:0000000000000912 .LASF78
     /tmp/ccxVa4lr.s:3776   .debug_str:0000000000000431 .LASF79
     /tmp/ccxVa4lr.s:3738   .debug_str:0000000000000311 .LASF121
     /tmp/ccxVa4lr.s:3694   .debug_str:00000000000001af .LASF151
     /tmp/ccxVa4lr.s:3782   .debug_str:0000000000000452 .LASF81
     /tmp/ccxVa4lr.s:3700   .debug_str:00000000000001d0 .LASF83
     /tmp/ccxVa4lr.s:3890   .debug_str:00000000000006dd .LASF84
     /tmp/ccxVa4lr.s:3916   .debug_str:0000000000000852 .LASF85
     /tmp/ccxVa4lr.s:3896   .debug_str:0000000000000709 .LASF95
     /tmp/ccxVa4lr.s:3948   .debug_str:0000000000000940 .LASF97
     /tmp/ccxVa4lr.s:3894   .debug_str:00000000000006f7 .LASF86
     /tmp/ccxVa4lr.s:3818   .debug_str:000000000000052c .LASF88
     /tmp/ccxVa4lr.s:3850   .debug_str:00000000000005ef .LASF90
     /tmp/ccxVa4lr.s:3682   .debug_str:0000000000000144 .LASF91
     /tmp/ccxVa4lr.s:3656   .debug_str:000000000000007f .LASF92
     /tmp/ccxVa4lr.s:3742   .debug_str:0000000000000327 .LASF93
     /tmp/ccxVa4lr.s:3732   .debug_str:00000000000002e2 .LASF152
     /tmp/ccxVa4lr.s:3730   .debug_str:00000000000002db .LASF94
     /tmp/ccxVa4lr.s:3686   .debug_str:000000000000016c .LASF96
     /tmp/ccxVa4lr.s:3832   .debug_str:000000000000057f .LASF98
     /tmp/ccxVa4lr.s:3950   .debug_str:0000000000000950 .LASF99
     /tmp/ccxVa4lr.s:3858   .debug_str:000000000000061a .LASF100
     /tmp/ccxVa4lr.s:3674   .debug_str:0000000000000104 .LASF101
     /tmp/ccxVa4lr.s:3762   .debug_str:00000000000003c3 .LASF102
     /tmp/ccxVa4lr.s:3804   .debug_str:00000000000004cc .LASF105
     /tmp/ccxVa4lr.s:3662   .debug_str:00000000000000b9 .LASF106
     /tmp/ccxVa4lr.s:3902   .debug_str:00000000000007ea .LASF107
     /tmp/ccxVa4lr.s:3744   .debug_str:0000000000000330 .LASF108
     /tmp/ccxVa4lr.s:3936   .debug_str:00000000000008f6 .LASF153
     /tmp/ccxVa4lr.s:3728   .debug_str:00000000000002d0 .LASF154
     /tmp/ccxVa4lr.s:3710   .debug_str:0000000000000228 .LASF155
GAS LISTING /tmp/ccxVa4lr.s 			page 23


     /tmp/ccxVa4lr.s:597    .text:00000000000002f0 .LFB65
     /tmp/ccxVa4lr.s:623    .text:0000000000000318 .LFE65
     /tmp/ccxVa4lr.s:3370   .debug_loc:0000000000000000 .LLST15
     /tmp/ccxVa4lr.s:612    .text:0000000000000308 .LVL41
     /tmp/ccxVa4lr.s:566    .text:00000000000002c8 .LFB64
     /tmp/ccxVa4lr.s:591    .text:00000000000002f0 .LFE64
     /tmp/ccxVa4lr.s:580    .text:00000000000002e0 .LVL39
     /tmp/ccxVa4lr.s:532    .text:000000000000029c .LFB63
     /tmp/ccxVa4lr.s:560    .text:00000000000002c8 .LFE63
     /tmp/ccxVa4lr.s:3718   .debug_str:000000000000026e .LASF109
     /tmp/ccxVa4lr.s:3384   .debug_loc:0000000000000039 .LLST14
     /tmp/ccxVa4lr.s:549    .text:00000000000002b8 .LVL38
     /tmp/ccxVa4lr.s:498    .text:0000000000000270 .LFB62
     /tmp/ccxVa4lr.s:526    .text:000000000000029c .LFE62
     /tmp/ccxVa4lr.s:3398   .debug_loc:0000000000000072 .LLST13
     /tmp/ccxVa4lr.s:515    .text:000000000000028c .LVL35
     /tmp/ccxVa4lr.s:3652   .debug_str:000000000000006e .LASF110
     /tmp/ccxVa4lr.s:3736   .debug_str:00000000000002ff .LASF111
     /tmp/ccxVa4lr.s:242    .text:0000000000000108 .LFB61
     /tmp/ccxVa4lr.s:275    .text:0000000000000148 .LFE61
     /tmp/ccxVa4lr.s:3412   .debug_loc:00000000000000ab .LLST5
     /tmp/ccxVa4lr.s:259    .text:0000000000000128 .LVL17
     /tmp/ccxVa4lr.s:262    .text:0000000000000134 .LVL18
     /tmp/ccxVa4lr.s:3658   .debug_str:0000000000000096 .LASF112
     /tmp/ccxVa4lr.s:192    .text:00000000000000d0 .LFB59
     /tmp/ccxVa4lr.s:227    .text:0000000000000108 .LFE59
     /tmp/ccxVa4lr.s:3430   .debug_loc:00000000000000f7 .LLST4
     /tmp/ccxVa4lr.s:215    .text:00000000000000f8 .LVL15
     /tmp/ccxVa4lr.s:3664   .debug_str:00000000000000bf .LASF117
     /tmp/ccxVa4lr.s:3680   .debug_str:0000000000000132 .LASF113
     /tmp/ccxVa4lr.s:457    .text:0000000000000238 .LFB56
     /tmp/ccxVa4lr.s:490    .text:0000000000000270 .LFE56
     /tmp/ccxVa4lr.s:3444   .debug_loc:0000000000000130 .LLST11
     /tmp/ccxVa4lr.s:3464   .debug_loc:000000000000017e .LLST12
     /tmp/ccxVa4lr.s:478    .text:0000000000000260 .LVL32
     /tmp/ccxVa4lr.s:37     .text:0000000000000000 .LFB54
     /tmp/ccxVa4lr.s:67     .text:000000000000002c .LFE54
     /tmp/ccxVa4lr.s:3478   .debug_loc:00000000000001b7 .LLST0
     /tmp/ccxVa4lr.s:56     .text:000000000000001c .LVL2
     /tmp/ccxVa4lr.s:3836   .debug_str:000000000000059a .LASF114
     /tmp/ccxVa4lr.s:414    .text:00000000000001f4 .LFB52
     /tmp/ccxVa4lr.s:449    .text:0000000000000238 .LFE52
     /tmp/ccxVa4lr.s:3492   .debug_loc:00000000000001f0 .LLST10
     /tmp/ccxVa4lr.s:437    .text:0000000000000228 .LVL29
     /tmp/ccxVa4lr.s:389    .text:00000000000001d8 .LFB50
     /tmp/ccxVa4lr.s:408    .text:00000000000001f4 .LFE50
     /tmp/ccxVa4lr.s:358    .text:00000000000001b0 .LFB49
     /tmp/ccxVa4lr.s:383    .text:00000000000001d8 .LFE49
     /tmp/ccxVa4lr.s:372    .text:00000000000001c8 .LVL26
     /tmp/ccxVa4lr.s:322    .text:0000000000000180 .LFB48
     /tmp/ccxVa4lr.s:352    .text:00000000000001b0 .LFE48
     /tmp/ccxVa4lr.s:3510   .debug_loc:000000000000023c .LLST9
     /tmp/ccxVa4lr.s:339    .text:000000000000019c .LVL25
     /tmp/ccxVa4lr.s:3768   .debug_str:00000000000003fc .LASF115
     /tmp/ccxVa4lr.s:153    .text:0000000000000090 .LFB47
     /tmp/ccxVa4lr.s:186    .text:00000000000000d0 .LFE47
     /tmp/ccxVa4lr.s:3524   .debug_loc:0000000000000275 .LLST3
GAS LISTING /tmp/ccxVa4lr.s 			page 24


     /tmp/ccxVa4lr.s:170    .text:00000000000000b0 .LVL10
     /tmp/ccxVa4lr.s:173    .text:00000000000000bc .LVL11
     /tmp/ccxVa4lr.s:3816   .debug_str:000000000000051d .LASF116
     /tmp/ccxVa4lr.s:73     .text:000000000000002c .LFB45
     /tmp/ccxVa4lr.s:137    .text:0000000000000090 .LFE45
     /tmp/ccxVa4lr.s:3542   .debug_loc:00000000000002c1 .LLST1
     /tmp/ccxVa4lr.s:105    .text:0000000000000060 .LBB7
     /tmp/ccxVa4lr.s:118    .text:0000000000000070 .LBE7
     /tmp/ccxVa4lr.s:3560   .debug_loc:000000000000030d .LLST2
     /tmp/ccxVa4lr.s:115    .text:0000000000000070 .LVL7
     /tmp/ccxVa4lr.s:97     .text:0000000000000058 .LVL4
     /tmp/ccxVa4lr.s:122    .text:000000000000007c .LVL8
     /tmp/ccxVa4lr.s:3906   .debug_str:000000000000080d .LASF118
     /tmp/ccxVa4lr.s:281    .text:0000000000000148 .LFB42
     /tmp/ccxVa4lr.s:314    .text:0000000000000180 .LFE42
     /tmp/ccxVa4lr.s:3567   .debug_loc:0000000000000330 .LLST6
     /tmp/ccxVa4lr.s:3587   .debug_loc:000000000000037e .LLST7
     /tmp/ccxVa4lr.s:3601   .debug_loc:00000000000003b7 .LLST8
     /tmp/ccxVa4lr.s:302    .text:0000000000000170 .LVL22
     /tmp/ccxVa4lr.s:11     .text._ZN6Thread3runEv:0000000000000000 .LFB40
     /tmp/ccxVa4lr.s:30     .text._ZN6Thread3runEv:0000000000000018 .LFE40
     /tmp/ccxVa4lr.s:3756   .debug_str:000000000000039e .LASF156
     /tmp/ccxVa4lr.s:3880   .debug_str:00000000000006b4 .LASF119
     /tmp/ccxVa4lr.s:3922   .debug_str:0000000000000883 .LASF120
     /tmp/ccxVa4lr.s:3892   .debug_str:00000000000006e2 .LASF122
     /tmp/ccxVa4lr.s:3640   .debug_str:0000000000000000 .LASF123
     /tmp/ccxVa4lr.s:3952   .debug_str:0000000000000967 .LASF124
     /tmp/ccxVa4lr.s:3954   .debug_str:0000000000000979 .LASF125
     /tmp/ccxVa4lr.s:3800   .debug_str:00000000000004c0 .LASF126
     /tmp/ccxVa4lr.s:3644   .debug_str:0000000000000010 .LASF127
     /tmp/ccxVa4lr.s:3690   .debug_str:000000000000018e .LASF128
     /tmp/ccxVa4lr.s:3820   .debug_str:0000000000000537 .LASF129
     /tmp/ccxVa4lr.s:3840   .debug_str:00000000000005b3 .LASF130
     /tmp/ccxVa4lr.s:3828   .debug_str:000000000000055f .LASF131
     /tmp/ccxVa4lr.s:3722   .debug_str:0000000000000283 .LASF132
     /tmp/ccxVa4lr.s:3918   .debug_str:000000000000085c .LASF133
     /tmp/ccxVa4lr.s:3784   .debug_str:0000000000000457 .LASF134
     /tmp/ccxVa4lr.s:3824   .debug_str:000000000000054a .LASF135
     /tmp/ccxVa4lr.s:3772   .debug_str:0000000000000413 .LASF136
     /tmp/ccxVa4lr.s:3810   .debug_str:0000000000000501 .LASF137
     /tmp/ccxVa4lr.s:3796   .debug_str:00000000000004a4 .LASF157
     /tmp/ccxVa4lr.s:3862   .debug_str:000000000000062c .LASF158
     /tmp/ccxVa4lr.s:3740   .debug_str:0000000000000316 .LASF138
     /tmp/ccxVa4lr.s:3778   .debug_str:0000000000000439 .LASF139
     /tmp/ccxVa4lr.s:600    .text:00000000000002f0 .LVL40
     /tmp/ccxVa4lr.s:535    .text:000000000000029c .LVL36
     /tmp/ccxVa4lr.s:547    .text:00000000000002b0 .LVL37
     /tmp/ccxVa4lr.s:501    .text:0000000000000270 .LVL33
     /tmp/ccxVa4lr.s:513    .text:0000000000000284 .LVL34
     /tmp/ccxVa4lr.s:245    .text:0000000000000108 .LVL16
     /tmp/ccxVa4lr.s:270    .text:0000000000000140 .LVL19
     /tmp/ccxVa4lr.s:197    .text:00000000000000d0 .LVL13
     /tmp/ccxVa4lr.s:213    .text:00000000000000f0 .LVL14
     /tmp/ccxVa4lr.s:460    .text:0000000000000238 .LVL30
     /tmp/ccxVa4lr.s:476    .text:0000000000000258 .LVL31
     /tmp/ccxVa4lr.s:41     .text:0000000000000000 .LVL1
     /tmp/ccxVa4lr.s:417    .text:00000000000001f4 .LVL27
GAS LISTING /tmp/ccxVa4lr.s 			page 25


     /tmp/ccxVa4lr.s:435    .text:0000000000000220 .LVL28
     /tmp/ccxVa4lr.s:325    .text:0000000000000180 .LVL23
     /tmp/ccxVa4lr.s:337    .text:0000000000000194 .LVL24
     /tmp/ccxVa4lr.s:156    .text:0000000000000090 .LVL9
     /tmp/ccxVa4lr.s:181    .text:00000000000000c8 .LVL12
     /tmp/ccxVa4lr.s:78     .text:000000000000002c .LVL3
     /tmp/ccxVa4lr.s:101    .text:000000000000005c .LVL5
     /tmp/ccxVa4lr.s:104    .text:0000000000000060 .LVL6
     /tmp/ccxVa4lr.s:284    .text:0000000000000148 .LVL20
     /tmp/ccxVa4lr.s:300    .text:0000000000000168 .LVL21
     /tmp/ccxVa4lr.s:653    .debug_info:0000000000000000 .Ldebug_info0
     /tmp/ccxVa4lr.s:5      .text:0000000000000000 .Ltext0
     /tmp/ccxVa4lr.s:647    .text:0000000000000318 .Letext0
     /tmp/ccxVa4lr.s:140    .gcc_except_table:0000000000000000 .LLSDA45
     /tmp/ccxVa4lr.s:229    .gcc_except_table:0000000000000004 .LLSDA59

UNDEFINED SYMBOLS
_Z11thread_exitv
_ZdaPv
_ZdlPv
__gxx_personality_v0
_Z9sem_closeP4_sem
_Z13thread_createPP3TCBPFvPvES2_
_Z12thread_startP3TCB
_Z15thread_dispatchv
_Z8sem_openPP4_semj
_Z8sem_waitP4_sem
_Z10sem_signalP4_sem
_Z4getcv
_Z4putcc
