GAS LISTING /tmp/ccjMLLUB.s 			page 1


   1              		.file	"syscall_c.cpp"
   2              		.option pic
   3              		.option norelax
   4              		.text
   5              	.Ltext0:
   6              		.align	2
   7              		.globl	_Z23environmentCallFunctionv
   9              	_Z23environmentCallFunctionv:
  10              	.LFB40:
  11              		.file 1 "src/syscall_c.cpp"
   1:src/syscall_c.cpp **** //
   2:src/syscall_c.cpp **** // Created by os on 9/1/22.
   3:src/syscall_c.cpp **** //
   4:src/syscall_c.cpp **** 
   5:src/syscall_c.cpp **** #include "../h/syscall_c.hpp"
   6:src/syscall_c.cpp **** #include "../lib/mem.h"
   7:src/syscall_c.cpp **** 
   8:src/syscall_c.cpp **** void environmentCallFunction()
   9:src/syscall_c.cpp **** {
  12              		.loc 1 9 1
  13              		.cfi_startproc
  14 0000 130101FF 		addi	sp,sp,-16
  15              		.cfi_def_cfa_offset 16
  16 0004 23348100 		sd	s0,8(sp)
  17              		.cfi_offset 8, -8
  18 0008 13040101 		addi	s0,sp,16
  19              		.cfi_def_cfa 8, 0
  10:src/syscall_c.cpp ****     __asm__ volatile ("ecall");
  20              		.loc 1 10 5
  21              		.loc 1 10 31 is_stmt 0
  22              	#APP
  23              	# 10 "src/syscall_c.cpp" 1
  11              	}
  24              		ecall
  25              	# 0 "" 2
  26              		.loc 1 11 1
  27              	#NO_APP
  28 0010 03348100 		ld	s0,8(sp)
  29              		.cfi_restore 8
  30              		.cfi_def_cfa 2, 16
  31 0014 13010101 		addi	sp,sp,16
  32              		.cfi_def_cfa_offset 0
  33 0018 67800000 		jr	ra
  34              		.cfi_endproc
  35              	.LFE40:
  37              		.align	2
  38              		.globl	_Z9mem_allocm
  40              	_Z9mem_allocm:
  41              	.LFB41:
  12:src/syscall_c.cpp **** 
  13:src/syscall_c.cpp **** void* mem_alloc (size_t size)
  14:src/syscall_c.cpp **** {
  42              		.loc 1 14 1 is_stmt 1
  43              		.cfi_startproc
  44              	.LVL0:
  15:src/syscall_c.cpp ****     if (size <= 0) return nullptr;
  45              		.loc 1 15 5
GAS LISTING /tmp/ccjMLLUB.s 			page 2


  46 001c 63060502 		beqz	a0,.L5
  14:src/syscall_c.cpp ****     if (size <= 0) return nullptr;
  47              		.loc 1 14 1 is_stmt 0
  48 0020 130101FF 		addi	sp,sp,-16
  49              		.cfi_def_cfa_offset 16
  50 0024 23341100 		sd	ra,8(sp)
  51 0028 23308100 		sd	s0,0(sp)
  52              		.cfi_offset 1, -8
  53              		.cfi_offset 8, -16
  54 002c 13040101 		addi	s0,sp,16
  55              		.cfi_def_cfa 8, 0
  16:src/syscall_c.cpp **** 
  17:src/syscall_c.cpp ****     return __mem_alloc(size);
  56              		.loc 1 17 5 is_stmt 1
  57              		.loc 1 17 23 is_stmt 0
  58 0030 97000000 		call	__mem_alloc@plt
  58      E7800000 
  59              	.LVL1:
  18:src/syscall_c.cpp **** }
  60              		.loc 1 18 1
  61 0038 83308100 		ld	ra,8(sp)
  62              		.cfi_restore 1
  63 003c 03340100 		ld	s0,0(sp)
  64              		.cfi_restore 8
  65              		.cfi_def_cfa 2, 16
  66 0040 13010101 		addi	sp,sp,16
  67              		.cfi_def_cfa_offset 0
  68 0044 67800000 		jr	ra
  69              	.LVL2:
  70              	.L5:
  15:src/syscall_c.cpp **** 
  71              		.loc 1 15 27
  72 0048 13050000 		li	a0,0
  73              	.LVL3:
  74              		.loc 1 18 1
  75 004c 67800000 		ret
  76              		.cfi_endproc
  77              	.LFE41:
  79              		.align	2
  80              		.globl	_Z8mem_freePv
  82              	_Z8mem_freePv:
  83              	.LFB42:
  19:src/syscall_c.cpp **** 
  20:src/syscall_c.cpp **** int mem_free (void* v)
  21:src/syscall_c.cpp **** {
  84              		.loc 1 21 1 is_stmt 1
  85              		.cfi_startproc
  86              	.LVL4:
  87 0050 130101FF 		addi	sp,sp,-16
  88              		.cfi_def_cfa_offset 16
  89 0054 23341100 		sd	ra,8(sp)
  90 0058 23308100 		sd	s0,0(sp)
  91              		.cfi_offset 1, -8
  92              		.cfi_offset 8, -16
  93 005c 13040101 		addi	s0,sp,16
  94              		.cfi_def_cfa 8, 0
  22:src/syscall_c.cpp ****     return __mem_free(v);
GAS LISTING /tmp/ccjMLLUB.s 			page 3


  95              		.loc 1 22 5
  96              		.loc 1 22 22 is_stmt 0
  97 0060 97000000 		call	__mem_free@plt
  97      E7800000 
  98              	.LVL5:
  23:src/syscall_c.cpp **** }
  99              		.loc 1 23 1
 100 0068 83308100 		ld	ra,8(sp)
 101              		.cfi_restore 1
 102 006c 03340100 		ld	s0,0(sp)
 103              		.cfi_restore 8
 104              		.cfi_def_cfa 2, 16
 105 0070 13010101 		addi	sp,sp,16
 106              		.cfi_def_cfa_offset 0
 107 0074 67800000 		jr	ra
 108              		.cfi_endproc
 109              	.LFE42:
 111              		.align	2
 112              		.globl	_Z13thread_createPP3TCBPFvPvES2_
 114              	_Z13thread_createPP3TCBPFvPvES2_:
 115              	.LFB43:
  24:src/syscall_c.cpp **** 
  25:src/syscall_c.cpp **** int thread_create (thread_t* handle, void (*start_routine) (void*), void* arg)
  26:src/syscall_c.cpp **** {
 116              		.loc 1 26 1 is_stmt 1
 117              		.cfi_startproc
 118              	.LVL6:
  27:src/syscall_c.cpp ****     if ( !handle || !start_routine) return -1; // error
 119              		.loc 1 27 5
 120 0078 630E0508 		beqz	a0,.L14
 121              		.loc 1 27 18 is_stmt 0 discriminator 2
 122 007c 6380050A 		beqz	a1,.L15
  26:src/syscall_c.cpp ****     if ( !handle || !start_routine) return -1; // error
 123              		.loc 1 26 1
 124 0080 130101FC 		addi	sp,sp,-64
 125              		.cfi_def_cfa_offset 64
 126 0084 233C1102 		sd	ra,56(sp)
 127 0088 23388102 		sd	s0,48(sp)
 128              		.cfi_offset 1, -8
 129              		.cfi_offset 8, -16
 130 008c 13040104 		addi	s0,sp,64
 131              		.cfi_def_cfa 8, 0
  28:src/syscall_c.cpp ****     //if ( !arg ) return -1;
  29:src/syscall_c.cpp **** 
  30:src/syscall_c.cpp ****     uint64 volatile num = 0x11;                                             //a0
 132              		.loc 1 30 5 is_stmt 1
 133              		.loc 1 30 21 is_stmt 0
 134 0090 93071001 		li	a5,17
 135 0094 2334F4FE 		sd	a5,-24(s0)
  31:src/syscall_c.cpp ****     uint64 volatile handleReg = (uint64) handle;                            //a1
 136              		.loc 1 31 5 is_stmt 1
 137              		.loc 1 31 21 is_stmt 0
 138 0098 2330A4FE 		sd	a0,-32(s0)
  32:src/syscall_c.cpp ****     uint64 volatile start_routineReg = (uint64) start_routine;              //a2
 139              		.loc 1 32 5 is_stmt 1
 140              		.loc 1 32 21 is_stmt 0
 141 009c 233CB4FC 		sd	a1,-40(s0)
GAS LISTING /tmp/ccjMLLUB.s 			page 4


  33:src/syscall_c.cpp ****     uint64 volatile argReg = (uint64) arg;                                  //a3
 142              		.loc 1 33 5 is_stmt 1
 143              		.loc 1 33 21 is_stmt 0
 144 00a0 2338C4FC 		sd	a2,-48(s0)
  34:src/syscall_c.cpp ****     uint64 volatile stack_spaceReg = (uint64) mem_alloc(sizeof(uint64) * DEFAULT_STACK_SIZE);    //
 145              		.loc 1 34 5 is_stmt 1
 146              		.loc 1 34 56 is_stmt 0
 147 00a4 37850000 		li	a0,32768
 148              	.LVL7:
 149 00a8 97000000 		call	_Z9mem_allocm
 149      E7800000 
 150              	.LVL8:
 151              		.loc 1 34 92
 152 00b0 2334A4FC 		sd	a0,-56(s0)
 153              	.LVL9:
  35:src/syscall_c.cpp **** 
  36:src/syscall_c.cpp ****     __asm__ volatile ("mv a0, %0" : : "r" (num));
 154              		.loc 1 36 5 is_stmt 1
 155              		.loc 1 36 44 is_stmt 0
 156 00b4 833784FE 		ld	a5,-24(s0)
 157              		.loc 1 36 49
 158              	#APP
 159              	# 36 "src/syscall_c.cpp" 1
  37              	    __asm__ volatile ("mv a1, %0" : : "r" (handleReg));
 160              		mv a0, a5
 161              	# 0 "" 2
 162              		.loc 1 37 5 is_stmt 1
 163              		.loc 1 37 44 is_stmt 0
 164              	#NO_APP
 165 00bc 833704FE 		ld	a5,-32(s0)
 166              		.loc 1 37 55
 167              	#APP
 168              	# 37 "src/syscall_c.cpp" 1
  38              	    __asm__ volatile ("mv a2, %0" : : "r" (start_routineReg));
 169              		mv a1, a5
 170              	# 0 "" 2
 171              		.loc 1 38 5 is_stmt 1
 172              		.loc 1 38 44 is_stmt 0
 173              	#NO_APP
 174 00c4 833784FD 		ld	a5,-40(s0)
 175              		.loc 1 38 62
 176              	#APP
 177              	# 38 "src/syscall_c.cpp" 1
  39              	    __asm__ volatile ("mv a3, %0" : : "r" (argReg));
 178              		mv a2, a5
 179              	# 0 "" 2
 180              		.loc 1 39 5 is_stmt 1
 181              		.loc 1 39 44 is_stmt 0
 182              	#NO_APP
 183 00cc 833704FD 		ld	a5,-48(s0)
 184              		.loc 1 39 52
 185              	#APP
 186              	# 39 "src/syscall_c.cpp" 1
  40              	    __asm__ volatile ("mv a4, %0" : : "r" (stack_spaceReg));
 187              		mv a3, a5
 188              	# 0 "" 2
 189              		.loc 1 40 5 is_stmt 1
GAS LISTING /tmp/ccjMLLUB.s 			page 5


 190              		.loc 1 40 44 is_stmt 0
 191              	#NO_APP
 192 00d4 833784FC 		ld	a5,-56(s0)
 193              		.loc 1 40 60
 194              	#APP
 195              	# 40 "src/syscall_c.cpp" 1
  41              	
  42:src/syscall_c.cpp ****     environmentCallFunction();
 196              		mv a4, a5
 197              	# 0 "" 2
 198              		.loc 1 42 5 is_stmt 1
 199              		.loc 1 42 28 is_stmt 0
 200              	#NO_APP
 201 00dc 97000000 		call	_Z23environmentCallFunctionv
 201      E7800000 
 202              	.LVL10:
  43:src/syscall_c.cpp **** 
  44:src/syscall_c.cpp ****     uint64 volatile ret = 0;
 203              		.loc 1 44 5 is_stmt 1
 204              		.loc 1 44 21 is_stmt 0
 205 00e4 233004FC 		sd	zero,-64(s0)
  45:src/syscall_c.cpp ****     __asm__ volatile ("mv %0, a0" : "=r" (ret));
 206              		.loc 1 45 5 is_stmt 1
 207              		.loc 1 45 48 is_stmt 0
 208              	#APP
 209              	# 45 "src/syscall_c.cpp" 1
  46              	
 210              		mv a5, a0
 211              	# 0 "" 2
 212              	#NO_APP
 213 00ec 2330F4FC 		sd	a5,-64(s0)
  47:src/syscall_c.cpp ****     if ( ret == 0) return 0;
 214              		.loc 1 47 5 is_stmt 1
 215              		.loc 1 47 14 is_stmt 0
 216 00f0 833704FC 		ld	a5,-64(s0)
 217              		.loc 1 47 5
 218 00f4 639C0700 		bnez	a5,.L21
 219              		.loc 1 47 27
 220 00f8 13050000 		li	a0,0
 221              	.L13:
  48:src/syscall_c.cpp ****     return -1;
  49:src/syscall_c.cpp **** }
 222              		.loc 1 49 1
 223 00fc 83308103 		ld	ra,56(sp)
 224              		.cfi_remember_state
 225              		.cfi_restore 1
 226 0100 03340103 		ld	s0,48(sp)
 227              		.cfi_restore 8
 228              		.cfi_def_cfa 2, 64
 229 0104 13010104 		addi	sp,sp,64
 230              		.cfi_def_cfa_offset 0
 231 0108 67800000 		jr	ra
 232              	.L21:
 233              		.cfi_restore_state
  48:src/syscall_c.cpp ****     return -1;
 234              		.loc 1 48 13
 235 010c 1305F0FF 		li	a0,-1
GAS LISTING /tmp/ccjMLLUB.s 			page 6


 236 0110 6FF0DFFE 		j	.L13
 237              	.LVL11:
 238              	.L14:
 239              		.cfi_def_cfa_register 2
 240              		.cfi_restore 1
 241              		.cfi_restore 8
  27:src/syscall_c.cpp ****     //if ( !arg ) return -1;
 242              		.loc 1 27 45
 243 0114 1305F0FF 		li	a0,-1
 244              	.LVL12:
 245 0118 67800000 		ret
 246              	.LVL13:
 247              	.L15:
 248 011c 1305F0FF 		li	a0,-1
 249              	.LVL14:
 250              		.loc 1 49 1
 251 0120 67800000 		ret
 252              		.cfi_endproc
 253              	.LFE43:
 255              		.align	2
 256              		.globl	_Z12thread_startP3TCB
 258              	_Z12thread_startP3TCB:
 259              	.LFB44:
  50:src/syscall_c.cpp **** 
  51:src/syscall_c.cpp **** int thread_start (thread_t handle)
  52:src/syscall_c.cpp **** {
 260              		.loc 1 52 1 is_stmt 1
 261              		.cfi_startproc
 262              	.LVL15:
  53:src/syscall_c.cpp ****     if ( !handle ) return -1; // error
 263              		.loc 1 53 5
 264 0124 63040506 		beqz	a0,.L24
  52:src/syscall_c.cpp ****     if ( !handle ) return -1; // error
 265              		.loc 1 52 1 is_stmt 0
 266 0128 130101FD 		addi	sp,sp,-48
 267              		.cfi_def_cfa_offset 48
 268 012c 23341102 		sd	ra,40(sp)
 269 0130 23308102 		sd	s0,32(sp)
 270              		.cfi_offset 1, -8
 271              		.cfi_offset 8, -16
 272 0134 13040103 		addi	s0,sp,48
 273              		.cfi_def_cfa 8, 0
  54:src/syscall_c.cpp ****     //if ( !arg ) return -1;
  55:src/syscall_c.cpp **** 
  56:src/syscall_c.cpp ****     uint64 volatile num = 0x14;                                             //a0
 274              		.loc 1 56 5 is_stmt 1
 275              		.loc 1 56 21 is_stmt 0
 276 0138 93074001 		li	a5,20
 277 013c 2334F4FE 		sd	a5,-24(s0)
  57:src/syscall_c.cpp ****     uint64 volatile handleReg = (uint64) handle;                            //a1
 278              		.loc 1 57 5 is_stmt 1
 279              		.loc 1 57 21 is_stmt 0
 280 0140 2330A4FE 		sd	a0,-32(s0)
  58:src/syscall_c.cpp **** 
  59:src/syscall_c.cpp ****     __asm__ volatile ("mv a0, %0" : : "r" (num));
 281              		.loc 1 59 5 is_stmt 1
 282              		.loc 1 59 44 is_stmt 0
GAS LISTING /tmp/ccjMLLUB.s 			page 7


 283 0144 833784FE 		ld	a5,-24(s0)
 284              		.loc 1 59 49
 285              	#APP
 286              	# 59 "src/syscall_c.cpp" 1
  60              	    __asm__ volatile ("mv a1, %0" : : "r" (handleReg));
 287              		mv a0, a5
 288              	# 0 "" 2
 289              		.loc 1 60 5 is_stmt 1
 290              		.loc 1 60 44 is_stmt 0
 291              	#NO_APP
 292 014c 833704FE 		ld	a5,-32(s0)
 293              		.loc 1 60 55
 294              	#APP
 295              	# 60 "src/syscall_c.cpp" 1
  61              	
  62:src/syscall_c.cpp ****     environmentCallFunction();
 296              		mv a1, a5
 297              	# 0 "" 2
 298              		.loc 1 62 5 is_stmt 1
 299              		.loc 1 62 28 is_stmt 0
 300              	#NO_APP
 301 0154 97000000 		call	_Z23environmentCallFunctionv
 301      E7800000 
 302              	.LVL16:
  63:src/syscall_c.cpp **** 
  64:src/syscall_c.cpp ****     uint64 volatile ret = 0;
 303              		.loc 1 64 5 is_stmt 1
 304              		.loc 1 64 21 is_stmt 0
 305 015c 233C04FC 		sd	zero,-40(s0)
 306              	.LVL17:
  65:src/syscall_c.cpp ****     __asm__ volatile ("mv %0, a0" : "=r" (ret));
 307              		.loc 1 65 5 is_stmt 1
 308              		.loc 1 65 48 is_stmt 0
 309              	#APP
 310              	# 65 "src/syscall_c.cpp" 1
  66              	
 311              		mv a5, a0
 312              	# 0 "" 2
 313              	#NO_APP
 314 0164 233CF4FC 		sd	a5,-40(s0)
  67:src/syscall_c.cpp ****     if ( ret == 0) return 0;
 315              		.loc 1 67 5 is_stmt 1
 316              		.loc 1 67 14 is_stmt 0
 317 0168 833784FD 		ld	a5,-40(s0)
 318              		.loc 1 67 5
 319 016c 639C0700 		bnez	a5,.L30
 320              		.loc 1 67 27
 321 0170 13050000 		li	a0,0
 322              	.L23:
  68:src/syscall_c.cpp ****     return -1;
  69:src/syscall_c.cpp **** }
 323              		.loc 1 69 1
 324 0174 83308102 		ld	ra,40(sp)
 325              		.cfi_remember_state
 326              		.cfi_restore 1
 327 0178 03340102 		ld	s0,32(sp)
 328              		.cfi_restore 8
GAS LISTING /tmp/ccjMLLUB.s 			page 8


 329              		.cfi_def_cfa 2, 48
 330 017c 13010103 		addi	sp,sp,48
 331              		.cfi_def_cfa_offset 0
 332 0180 67800000 		jr	ra
 333              	.L30:
 334              		.cfi_restore_state
  68:src/syscall_c.cpp ****     return -1;
 335              		.loc 1 68 13
 336 0184 1305F0FF 		li	a0,-1
 337 0188 6FF0DFFE 		j	.L23
 338              	.LVL18:
 339              	.L24:
 340              		.cfi_def_cfa_register 2
 341              		.cfi_restore 1
 342              		.cfi_restore 8
  53:src/syscall_c.cpp ****     //if ( !arg ) return -1;
 343              		.loc 1 53 28
 344 018c 1305F0FF 		li	a0,-1
 345              	.LVL19:
 346              		.loc 1 69 1
 347 0190 67800000 		ret
 348              		.cfi_endproc
 349              	.LFE44:
 351              		.align	2
 352              		.globl	_Z11thread_exitv
 354              	_Z11thread_exitv:
 355              	.LFB45:
  70:src/syscall_c.cpp **** 
  71:src/syscall_c.cpp **** int thread_exit ()
  72:src/syscall_c.cpp **** {
 356              		.loc 1 72 1 is_stmt 1
 357              		.cfi_startproc
 358 0194 130101FE 		addi	sp,sp,-32
 359              		.cfi_def_cfa_offset 32
 360 0198 233C1100 		sd	ra,24(sp)
 361 019c 23388100 		sd	s0,16(sp)
 362              		.cfi_offset 1, -8
 363              		.cfi_offset 8, -16
 364 01a0 13040102 		addi	s0,sp,32
 365              		.cfi_def_cfa 8, 0
  73:src/syscall_c.cpp ****     uint64 volatile num = 0x12;
 366              		.loc 1 73 5
 367              		.loc 1 73 21 is_stmt 0
 368 01a4 93072001 		li	a5,18
 369 01a8 2334F4FE 		sd	a5,-24(s0)
  74:src/syscall_c.cpp **** 
  75:src/syscall_c.cpp ****     __asm__ volatile ("mv a0, %0" : : [stvec] "r" (num));
 370              		.loc 1 75 5 is_stmt 1
 371              		.loc 1 75 52 is_stmt 0
 372 01ac 833784FE 		ld	a5,-24(s0)
 373              		.loc 1 75 57
 374              	#APP
 375              	# 75 "src/syscall_c.cpp" 1
  76              	
  77:src/syscall_c.cpp ****     environmentCallFunction();
 376              		mv a0, a5
 377              	# 0 "" 2
GAS LISTING /tmp/ccjMLLUB.s 			page 9


 378              		.loc 1 77 5 is_stmt 1
 379              		.loc 1 77 28 is_stmt 0
 380              	#NO_APP
 381 01b4 97000000 		call	_Z23environmentCallFunctionv
 381      E7800000 
 382              	.LVL20:
  78:src/syscall_c.cpp **** 
  79:src/syscall_c.cpp ****     /*uint64 volatile ret = 0;
  80:src/syscall_c.cpp ****     __asm__ volatile ("mv %0, a0" : "=r" (ret));*/
  81:src/syscall_c.cpp **** 
  82:src/syscall_c.cpp ****     return 0;
 383              		.loc 1 82 5 is_stmt 1
  83:src/syscall_c.cpp **** }
 384              		.loc 1 83 1 is_stmt 0
 385 01bc 13050000 		li	a0,0
 386 01c0 83308101 		ld	ra,24(sp)
 387              		.cfi_restore 1
 388 01c4 03340101 		ld	s0,16(sp)
 389              		.cfi_restore 8
 390              		.cfi_def_cfa 2, 32
 391 01c8 13010102 		addi	sp,sp,32
 392              		.cfi_def_cfa_offset 0
 393 01cc 67800000 		jr	ra
 394              		.cfi_endproc
 395              	.LFE45:
 397              		.align	2
 398              		.globl	_Z15thread_dispatchv
 400              	_Z15thread_dispatchv:
 401              	.LFB46:
  84:src/syscall_c.cpp **** 
  85:src/syscall_c.cpp **** void thread_dispatch ()
  86:src/syscall_c.cpp **** {
 402              		.loc 1 86 1 is_stmt 1
 403              		.cfi_startproc
 404 01d0 130101FE 		addi	sp,sp,-32
 405              		.cfi_def_cfa_offset 32
 406 01d4 233C1100 		sd	ra,24(sp)
 407 01d8 23388100 		sd	s0,16(sp)
 408              		.cfi_offset 1, -8
 409              		.cfi_offset 8, -16
 410 01dc 13040102 		addi	s0,sp,32
 411              		.cfi_def_cfa 8, 0
  87:src/syscall_c.cpp ****     uint64 volatile num = 0x13;
 412              		.loc 1 87 5
 413              		.loc 1 87 21 is_stmt 0
 414 01e0 93073001 		li	a5,19
 415 01e4 2334F4FE 		sd	a5,-24(s0)
  88:src/syscall_c.cpp **** 
  89:src/syscall_c.cpp ****     __asm__ volatile ("mv a0, %0" : : [stvec] "r" (num));
 416              		.loc 1 89 5 is_stmt 1
 417              		.loc 1 89 52 is_stmt 0
 418 01e8 833784FE 		ld	a5,-24(s0)
 419              		.loc 1 89 57
 420              	#APP
 421              	# 89 "src/syscall_c.cpp" 1
  90              	
  91:src/syscall_c.cpp ****     environmentCallFunction();
GAS LISTING /tmp/ccjMLLUB.s 			page 10


 422              		mv a0, a5
 423              	# 0 "" 2
 424              		.loc 1 91 5 is_stmt 1
 425              		.loc 1 91 28 is_stmt 0
 426              	#NO_APP
 427 01f0 97000000 		call	_Z23environmentCallFunctionv
 427      E7800000 
 428              	.LVL21:
  92:src/syscall_c.cpp **** 
  93:src/syscall_c.cpp **** }
 429              		.loc 1 93 1
 430 01f8 83308101 		ld	ra,24(sp)
 431              		.cfi_restore 1
 432 01fc 03340101 		ld	s0,16(sp)
 433              		.cfi_restore 8
 434              		.cfi_def_cfa 2, 32
 435 0200 13010102 		addi	sp,sp,32
 436              		.cfi_def_cfa_offset 0
 437 0204 67800000 		jr	ra
 438              		.cfi_endproc
 439              	.LFE46:
 441              		.align	2
 442              		.globl	_Z8sem_openPP4_semj
 444              	_Z8sem_openPP4_semj:
 445              	.LFB47:
  94:src/syscall_c.cpp **** 
  95:src/syscall_c.cpp **** // Semaphore
  96:src/syscall_c.cpp **** int sem_open ( sem_t* handle, unsigned init) //0x21
  97:src/syscall_c.cpp **** {
 446              		.loc 1 97 1 is_stmt 1
 447              		.cfi_startproc
 448              	.LVL22:
  98:src/syscall_c.cpp ****     if ( !handle ) return -1; // error
 449              		.loc 1 98 5
 450 0208 63000506 		beqz	a0,.L37
  97:src/syscall_c.cpp ****     if ( !handle ) return -1; // error
 451              		.loc 1 97 1 is_stmt 0
 452 020c 130101FD 		addi	sp,sp,-48
 453              		.cfi_def_cfa_offset 48
 454 0210 23341102 		sd	ra,40(sp)
 455 0214 23308102 		sd	s0,32(sp)
 456              		.cfi_offset 1, -8
 457              		.cfi_offset 8, -16
 458 0218 13040103 		addi	s0,sp,48
 459              		.cfi_def_cfa 8, 0
  99:src/syscall_c.cpp **** 
 100:src/syscall_c.cpp ****     uint64 volatile num = 0x21;                                             //a0
 460              		.loc 1 100 5 is_stmt 1
 461              		.loc 1 100 21 is_stmt 0
 462 021c 93071002 		li	a5,33
 463 0220 2334F4FE 		sd	a5,-24(s0)
 101:src/syscall_c.cpp ****     uint64 volatile handleReg = (uint64) handle;                            //a1
 464              		.loc 1 101 5 is_stmt 1
 465              		.loc 1 101 21 is_stmt 0
 466 0224 2330A4FE 		sd	a0,-32(s0)
 102:src/syscall_c.cpp ****     uint64 volatile initReg = (uint64) init;                                //a2
 467              		.loc 1 102 5 is_stmt 1
GAS LISTING /tmp/ccjMLLUB.s 			page 11


 468              		.loc 1 102 31 is_stmt 0
 469 0228 93950502 		slli	a1,a1,32
 470              	.LVL23:
 471 022c 93D50502 		srli	a1,a1,32
 472              		.loc 1 102 21
 473 0230 233CB4FC 		sd	a1,-40(s0)
 103:src/syscall_c.cpp **** 
 104:src/syscall_c.cpp ****     __asm__ volatile ("mv a0, %0" : : "r" (num));
 474              		.loc 1 104 5 is_stmt 1
 475              		.loc 1 104 44 is_stmt 0
 476 0234 833784FE 		ld	a5,-24(s0)
 477              		.loc 1 104 49
 478              	#APP
 479              	# 104 "src/syscall_c.cpp" 1
 105              	    __asm__ volatile ("mv a1, %0" : : "r" (handleReg));
 480              		mv a0, a5
 481              	# 0 "" 2
 482              		.loc 1 105 5 is_stmt 1
 483              		.loc 1 105 44 is_stmt 0
 484              	#NO_APP
 485 023c 833704FE 		ld	a5,-32(s0)
 486              		.loc 1 105 55
 487              	#APP
 488              	# 105 "src/syscall_c.cpp" 1
 106              	    __asm__ volatile ("mv a2, %0" : : "r" (initReg));
 489              		mv a1, a5
 490              	# 0 "" 2
 491              		.loc 1 106 5 is_stmt 1
 492              		.loc 1 106 44 is_stmt 0
 493              	#NO_APP
 494 0244 833784FD 		ld	a5,-40(s0)
 495              		.loc 1 106 53
 496              	#APP
 497              	# 106 "src/syscall_c.cpp" 1
 107              	
 108:src/syscall_c.cpp ****     environmentCallFunction();
 498              		mv a2, a5
 499              	# 0 "" 2
 500              		.loc 1 108 5 is_stmt 1
 501              		.loc 1 108 28 is_stmt 0
 502              	#NO_APP
 503 024c 97000000 		call	_Z23environmentCallFunctionv
 503      E7800000 
 504              	.LVL24:
 109:src/syscall_c.cpp **** 
 110:src/syscall_c.cpp ****     return 0;
 505              		.loc 1 110 5 is_stmt 1
 506              		.loc 1 110 12 is_stmt 0
 507 0254 13050000 		li	a0,0
 111:src/syscall_c.cpp **** }
 508              		.loc 1 111 1
 509 0258 83308102 		ld	ra,40(sp)
 510              		.cfi_restore 1
 511 025c 03340102 		ld	s0,32(sp)
 512              		.cfi_restore 8
 513              		.cfi_def_cfa 2, 48
 514 0260 13010103 		addi	sp,sp,48
GAS LISTING /tmp/ccjMLLUB.s 			page 12


 515              		.cfi_def_cfa_offset 0
 516 0264 67800000 		jr	ra
 517              	.LVL25:
 518              	.L37:
  98:src/syscall_c.cpp **** 
 519              		.loc 1 98 28
 520 0268 1305F0FF 		li	a0,-1
 521              	.LVL26:
 522              		.loc 1 111 1
 523 026c 67800000 		ret
 524              		.cfi_endproc
 525              	.LFE47:
 527              		.align	2
 528              		.globl	_Z9sem_closeP4_sem
 530              	_Z9sem_closeP4_sem:
 531              	.LFB48:
 112:src/syscall_c.cpp **** 
 113:src/syscall_c.cpp **** int sem_close (sem_t handle) //0x22
 114:src/syscall_c.cpp **** {
 532              		.loc 1 114 1 is_stmt 1
 533              		.cfi_startproc
 534              	.LVL27:
 535 0270 130101FE 		addi	sp,sp,-32
 536              		.cfi_def_cfa_offset 32
 537 0274 233C1100 		sd	ra,24(sp)
 538 0278 23388100 		sd	s0,16(sp)
 539              		.cfi_offset 1, -8
 540              		.cfi_offset 8, -16
 541 027c 13040102 		addi	s0,sp,32
 542              		.cfi_def_cfa 8, 0
 115:src/syscall_c.cpp ****     uint64 volatile num = 0x22;                                             //a0
 543              		.loc 1 115 5
 544              		.loc 1 115 21 is_stmt 0
 545 0280 93072002 		li	a5,34
 546 0284 2334F4FE 		sd	a5,-24(s0)
 116:src/syscall_c.cpp ****     uint64 volatile handleReg = (uint64) handle;                            //a1
 547              		.loc 1 116 5 is_stmt 1
 548              		.loc 1 116 21 is_stmt 0
 549 0288 2330A4FE 		sd	a0,-32(s0)
 117:src/syscall_c.cpp **** 
 118:src/syscall_c.cpp ****     __asm__ volatile ("mv a0, %0" : : "r" (num));
 550              		.loc 1 118 5 is_stmt 1
 551              		.loc 1 118 44 is_stmt 0
 552 028c 833784FE 		ld	a5,-24(s0)
 553              		.loc 1 118 49
 554              	#APP
 555              	# 118 "src/syscall_c.cpp" 1
 119              	    __asm__ volatile ("mv a1, %0" : : "r" (handleReg));
 556              		mv a0, a5
 557              	# 0 "" 2
 558              		.loc 1 119 5 is_stmt 1
 559              		.loc 1 119 44 is_stmt 0
 560              	#NO_APP
 561 0294 833704FE 		ld	a5,-32(s0)
 562              		.loc 1 119 55
 563              	#APP
 564              	# 119 "src/syscall_c.cpp" 1
GAS LISTING /tmp/ccjMLLUB.s 			page 13


 120              	
 121:src/syscall_c.cpp ****     environmentCallFunction();
 565              		mv a1, a5
 566              	# 0 "" 2
 567              		.loc 1 121 5 is_stmt 1
 568              		.loc 1 121 28 is_stmt 0
 569              	#NO_APP
 570 029c 97000000 		call	_Z23environmentCallFunctionv
 570      E7800000 
 571              	.LVL28:
 122:src/syscall_c.cpp **** 
 123:src/syscall_c.cpp ****     return 0;
 572              		.loc 1 123 5 is_stmt 1
 124:src/syscall_c.cpp **** }
 573              		.loc 1 124 1 is_stmt 0
 574 02a4 13050000 		li	a0,0
 575 02a8 83308101 		ld	ra,24(sp)
 576              		.cfi_restore 1
 577 02ac 03340101 		ld	s0,16(sp)
 578              		.cfi_restore 8
 579              		.cfi_def_cfa 2, 32
 580 02b0 13010102 		addi	sp,sp,32
 581              		.cfi_def_cfa_offset 0
 582              	.LVL29:
 583 02b4 67800000 		jr	ra
 584              		.cfi_endproc
 585              	.LFE48:
 587              		.align	2
 588              		.globl	_Z8sem_waitP4_sem
 590              	_Z8sem_waitP4_sem:
 591              	.LFB49:
 125:src/syscall_c.cpp **** 
 126:src/syscall_c.cpp **** int sem_wait (sem_t id) // 0x23
 127:src/syscall_c.cpp **** {
 592              		.loc 1 127 1 is_stmt 1
 593              		.cfi_startproc
 594              	.LVL30:
 595 02b8 130101FD 		addi	sp,sp,-48
 596              		.cfi_def_cfa_offset 48
 597 02bc 23341102 		sd	ra,40(sp)
 598 02c0 23308102 		sd	s0,32(sp)
 599              		.cfi_offset 1, -8
 600              		.cfi_offset 8, -16
 601 02c4 13040103 		addi	s0,sp,48
 602              		.cfi_def_cfa 8, 0
 128:src/syscall_c.cpp ****     uint64 volatile num = 0x23;                                             //a0
 603              		.loc 1 128 5
 604              		.loc 1 128 21 is_stmt 0
 605 02c8 93073002 		li	a5,35
 606 02cc 2334F4FE 		sd	a5,-24(s0)
 129:src/syscall_c.cpp ****     uint64 volatile handleReg = (uint64) id;                                //a1
 607              		.loc 1 129 5 is_stmt 1
 608              		.loc 1 129 21 is_stmt 0
 609 02d0 2330A4FE 		sd	a0,-32(s0)
 130:src/syscall_c.cpp **** 
 131:src/syscall_c.cpp ****     __asm__ volatile ("mv a0, %0" : : "r" (num));
 610              		.loc 1 131 5 is_stmt 1
GAS LISTING /tmp/ccjMLLUB.s 			page 14


 611              		.loc 1 131 44 is_stmt 0
 612 02d4 833784FE 		ld	a5,-24(s0)
 613              		.loc 1 131 49
 614              	#APP
 615              	# 131 "src/syscall_c.cpp" 1
 132              	    __asm__ volatile ("mv a1, %0" : : "r" (handleReg));
 616              		mv a0, a5
 617              	# 0 "" 2
 618              		.loc 1 132 5 is_stmt 1
 619              		.loc 1 132 44 is_stmt 0
 620              	#NO_APP
 621 02dc 833704FE 		ld	a5,-32(s0)
 622              		.loc 1 132 55
 623              	#APP
 624              	# 132 "src/syscall_c.cpp" 1
 133              	
 134:src/syscall_c.cpp ****     environmentCallFunction();
 625              		mv a1, a5
 626              	# 0 "" 2
 627              		.loc 1 134 5 is_stmt 1
 628              		.loc 1 134 28 is_stmt 0
 629              	#NO_APP
 630 02e4 97000000 		call	_Z23environmentCallFunctionv
 630      E7800000 
 631              	.LVL31:
 135:src/syscall_c.cpp **** 
 136:src/syscall_c.cpp ****     uint64 volatile ret = 0;
 632              		.loc 1 136 5 is_stmt 1
 633              		.loc 1 136 21 is_stmt 0
 634 02ec 233C04FC 		sd	zero,-40(s0)
 635              	.LVL32:
 137:src/syscall_c.cpp ****     __asm__ volatile ("mv %0, a0" : "=r" (ret));
 636              		.loc 1 137 5 is_stmt 1
 637              		.loc 1 137 48 is_stmt 0
 638              	#APP
 639              	# 137 "src/syscall_c.cpp" 1
 138              	
 640              		mv a5, a0
 641              	# 0 "" 2
 642              	#NO_APP
 643 02f4 233CF4FC 		sd	a5,-40(s0)
 139:src/syscall_c.cpp ****     return ret;
 644              		.loc 1 139 5 is_stmt 1
 645              		.loc 1 139 12 is_stmt 0
 646 02f8 033584FD 		ld	a0,-40(s0)
 140:src/syscall_c.cpp **** }
 647              		.loc 1 140 1
 648 02fc 1B050500 		sext.w	a0,a0
 649 0300 83308102 		ld	ra,40(sp)
 650              		.cfi_restore 1
 651 0304 03340102 		ld	s0,32(sp)
 652              		.cfi_restore 8
 653              		.cfi_def_cfa 2, 48
 654 0308 13010103 		addi	sp,sp,48
 655              		.cfi_def_cfa_offset 0
 656 030c 67800000 		jr	ra
 657              		.cfi_endproc
GAS LISTING /tmp/ccjMLLUB.s 			page 15


 658              	.LFE49:
 660              		.align	2
 661              		.globl	_Z10sem_signalP4_sem
 663              	_Z10sem_signalP4_sem:
 664              	.LFB50:
 141:src/syscall_c.cpp **** 
 142:src/syscall_c.cpp **** int sem_signal (sem_t id) // 0x24
 143:src/syscall_c.cpp **** {
 665              		.loc 1 143 1 is_stmt 1
 666              		.cfi_startproc
 667              	.LVL33:
 668 0310 130101FD 		addi	sp,sp,-48
 669              		.cfi_def_cfa_offset 48
 670 0314 23341102 		sd	ra,40(sp)
 671 0318 23308102 		sd	s0,32(sp)
 672              		.cfi_offset 1, -8
 673              		.cfi_offset 8, -16
 674 031c 13040103 		addi	s0,sp,48
 675              		.cfi_def_cfa 8, 0
 144:src/syscall_c.cpp ****     uint64 volatile num = 0x24;                                             //a0
 676              		.loc 1 144 5
 677              		.loc 1 144 21 is_stmt 0
 678 0320 93074002 		li	a5,36
 679 0324 2334F4FE 		sd	a5,-24(s0)
 145:src/syscall_c.cpp ****     uint64 volatile handleReg = (uint64) id;                                //a1
 680              		.loc 1 145 5 is_stmt 1
 681              		.loc 1 145 21 is_stmt 0
 682 0328 2330A4FE 		sd	a0,-32(s0)
 146:src/syscall_c.cpp **** 
 147:src/syscall_c.cpp ****     __asm__ volatile ("mv a0, %0" : : "r" (num));
 683              		.loc 1 147 5 is_stmt 1
 684              		.loc 1 147 44 is_stmt 0
 685 032c 833784FE 		ld	a5,-24(s0)
 686              		.loc 1 147 49
 687              	#APP
 688              	# 147 "src/syscall_c.cpp" 1
 148              	    __asm__ volatile ("mv a1, %0" : : "r" (handleReg));
 689              		mv a0, a5
 690              	# 0 "" 2
 691              		.loc 1 148 5 is_stmt 1
 692              		.loc 1 148 44 is_stmt 0
 693              	#NO_APP
 694 0334 833704FE 		ld	a5,-32(s0)
 695              		.loc 1 148 55
 696              	#APP
 697              	# 148 "src/syscall_c.cpp" 1
 149              	
 150:src/syscall_c.cpp ****     environmentCallFunction();
 698              		mv a1, a5
 699              	# 0 "" 2
 700              		.loc 1 150 5 is_stmt 1
 701              		.loc 1 150 28 is_stmt 0
 702              	#NO_APP
 703 033c 97000000 		call	_Z23environmentCallFunctionv
 703      E7800000 
 704              	.LVL34:
 151:src/syscall_c.cpp **** 
GAS LISTING /tmp/ccjMLLUB.s 			page 16


 152:src/syscall_c.cpp ****     uint64 volatile ret = 0;
 705              		.loc 1 152 5 is_stmt 1
 706              		.loc 1 152 21 is_stmt 0
 707 0344 233C04FC 		sd	zero,-40(s0)
 708              	.LVL35:
 153:src/syscall_c.cpp ****     __asm__ volatile ("mv %0, a0" : "=r" (ret));
 709              		.loc 1 153 5 is_stmt 1
 710              		.loc 1 153 48 is_stmt 0
 711              	#APP
 712              	# 153 "src/syscall_c.cpp" 1
 154              	
 713              		mv a5, a0
 714              	# 0 "" 2
 715              	#NO_APP
 716 034c 233CF4FC 		sd	a5,-40(s0)
 155:src/syscall_c.cpp ****     return ret;
 717              		.loc 1 155 5 is_stmt 1
 718              		.loc 1 155 12 is_stmt 0
 719 0350 033584FD 		ld	a0,-40(s0)
 156:src/syscall_c.cpp **** }
 720              		.loc 1 156 1
 721 0354 1B050500 		sext.w	a0,a0
 722 0358 83308102 		ld	ra,40(sp)
 723              		.cfi_restore 1
 724 035c 03340102 		ld	s0,32(sp)
 725              		.cfi_restore 8
 726              		.cfi_def_cfa 2, 48
 727 0360 13010103 		addi	sp,sp,48
 728              		.cfi_def_cfa_offset 0
 729 0364 67800000 		jr	ra
 730              		.cfi_endproc
 731              	.LFE50:
 733              		.align	2
 734              		.globl	_Z4getcv
 736              	_Z4getcv:
 737              	.LFB51:
 157:src/syscall_c.cpp **** 
 158:src/syscall_c.cpp **** // Console
 159:src/syscall_c.cpp **** char getc() //0x41
 160:src/syscall_c.cpp **** {
 738              		.loc 1 160 1 is_stmt 1
 739              		.cfi_startproc
 740 0368 130101FF 		addi	sp,sp,-16
 741              		.cfi_def_cfa_offset 16
 742 036c 23341100 		sd	ra,8(sp)
 743 0370 23308100 		sd	s0,0(sp)
 744              		.cfi_offset 1, -8
 745              		.cfi_offset 8, -16
 746 0374 13040101 		addi	s0,sp,16
 747              		.cfi_def_cfa 8, 0
 161:src/syscall_c.cpp ****     /*uint64 volatile num = 0x41;                                             //a0
 162:src/syscall_c.cpp **** 
 163:src/syscall_c.cpp ****     __asm__ volatile ("mv a0, %0" : : "r" (num));
 164:src/syscall_c.cpp **** 
 165:src/syscall_c.cpp ****     environmentCallFunction();
 166:src/syscall_c.cpp **** 
 167:src/syscall_c.cpp ****     uint64 ret = 0;
GAS LISTING /tmp/ccjMLLUB.s 			page 17


 168:src/syscall_c.cpp ****     __asm__ volatile ("mv %0, a0" : "=r" (ret));
 169:src/syscall_c.cpp ****     return (char)ret;*/
 170:src/syscall_c.cpp **** 
 171:src/syscall_c.cpp ****     //environmentCallFunction();
 172:src/syscall_c.cpp **** 
 173:src/syscall_c.cpp ****     return __getc();
 748              		.loc 1 173 5
 749              		.loc 1 173 18 is_stmt 0
 750 0378 97000000 		call	__getc@plt
 750      E7800000 
 751              	.LVL36:
 174:src/syscall_c.cpp **** }
 752              		.loc 1 174 1
 753 0380 83308100 		ld	ra,8(sp)
 754              		.cfi_restore 1
 755 0384 03340100 		ld	s0,0(sp)
 756              		.cfi_restore 8
 757              		.cfi_def_cfa 2, 16
 758 0388 13010101 		addi	sp,sp,16
 759              		.cfi_def_cfa_offset 0
 760 038c 67800000 		jr	ra
 761              		.cfi_endproc
 762              	.LFE51:
 764              		.align	2
 765              		.globl	_Z4putcc
 767              	_Z4putcc:
 768              	.LFB52:
 175:src/syscall_c.cpp **** 
 176:src/syscall_c.cpp **** void putc(char chr) //0x42
 177:src/syscall_c.cpp **** {
 769              		.loc 1 177 1 is_stmt 1
 770              		.cfi_startproc
 771              	.LVL37:
 772 0390 130101FF 		addi	sp,sp,-16
 773              		.cfi_def_cfa_offset 16
 774 0394 23341100 		sd	ra,8(sp)
 775 0398 23308100 		sd	s0,0(sp)
 776              		.cfi_offset 1, -8
 777              		.cfi_offset 8, -16
 778 039c 13040101 		addi	s0,sp,16
 779              		.cfi_def_cfa 8, 0
 178:src/syscall_c.cpp ****     /*uint64 volatile num = 0x42;                                             //a0
 179:src/syscall_c.cpp ****     //uint64 volatile chrReg = (uint64) chr;                                  //a1
 180:src/syscall_c.cpp **** 
 181:src/syscall_c.cpp ****     __asm__ volatile ("mv a0, %0" : : "r" (num));
 182:src/syscall_c.cpp ****     //__asm__ volatile ("mv a1, %0" : : "r" (chrReg));
 183:src/syscall_c.cpp **** 
 184:src/syscall_c.cpp ****     environmentCallFunction();*/
 185:src/syscall_c.cpp **** 
 186:src/syscall_c.cpp ****     __putc(chr);
 780              		.loc 1 186 5
 781              		.loc 1 186 11 is_stmt 0
 782 03a0 97000000 		call	__putc@plt
 782      E7800000 
 783              	.LVL38:
 187:src/syscall_c.cpp **** }
 784              		.loc 1 187 1
GAS LISTING /tmp/ccjMLLUB.s 			page 18


 785 03a8 83308100 		ld	ra,8(sp)
 786              		.cfi_restore 1
 787 03ac 03340100 		ld	s0,0(sp)
 788              		.cfi_restore 8
 789              		.cfi_def_cfa 2, 16
 790 03b0 13010101 		addi	sp,sp,16
 791              		.cfi_def_cfa_offset 0
 792 03b4 67800000 		jr	ra
 793              		.cfi_endproc
 794              	.LFE52:
 796              	.Letext0:
 797              		.file 2 "src/../h/../lib/hw.h"
 798              		.file 3 "src/../h/list.hpp"
 799              		.file 4 "src/../h/tcb.hpp"
 800              		.file 5 "src/../h/_sem.hpp"
 801              		.file 6 "src/../h/syscall_c.hpp"
 802              		.file 7 "src/../h/../lib/console.h"
 803              		.file 8 "src/../lib/mem.h"
GAS LISTING /tmp/ccjMLLUB.s 			page 19


DEFINED SYMBOLS
                            *ABS*:0000000000000000 syscall_c.cpp
     /tmp/ccjMLLUB.s:9      .text:0000000000000000 _Z23environmentCallFunctionv
     /tmp/ccjMLLUB.s:13     .text:0000000000000000 .L0 
     /tmp/ccjMLLUB.s:14     .text:0000000000000000 .L0 
     /tmp/ccjMLLUB.s:15     .text:0000000000000004 .L0 
     /tmp/ccjMLLUB.s:17     .text:0000000000000008 .L0 
     /tmp/ccjMLLUB.s:19     .text:000000000000000c .L0 
     /tmp/ccjMLLUB.s:21     .text:000000000000000c .L0 
   src/syscall_c.cpp:10     .text:000000000000000c .L0 
     /tmp/ccjMLLUB.s:28     .text:0000000000000010 .L0 
     /tmp/ccjMLLUB.s:29     .text:0000000000000014 .L0 
     /tmp/ccjMLLUB.s:30     .text:0000000000000014 .L0 
     /tmp/ccjMLLUB.s:32     .text:0000000000000018 .L0 
     /tmp/ccjMLLUB.s:34     .text:000000000000001c .L0 
     /tmp/ccjMLLUB.s:40     .text:000000000000001c _Z9mem_allocm
     /tmp/ccjMLLUB.s:43     .text:000000000000001c .L0 
     /tmp/ccjMLLUB.s:45     .text:000000000000001c .L0 
     /tmp/ccjMLLUB.s:46     .text:000000000000001c .L0 
     /tmp/ccjMLLUB.s:48     .text:0000000000000020 .L0 
     /tmp/ccjMLLUB.s:49     .text:0000000000000024 .L0 
     /tmp/ccjMLLUB.s:52     .text:000000000000002c .L0 
     /tmp/ccjMLLUB.s:53     .text:000000000000002c .L0 
     /tmp/ccjMLLUB.s:55     .text:0000000000000030 .L0 
     /tmp/ccjMLLUB.s:57     .text:0000000000000030 .L0 
     /tmp/ccjMLLUB.s:58     .text:0000000000000030 .L0 
     /tmp/ccjMLLUB.s:61     .text:0000000000000038 .L0 
     /tmp/ccjMLLUB.s:62     .text:000000000000003c .L0 
     /tmp/ccjMLLUB.s:64     .text:0000000000000040 .L0 
     /tmp/ccjMLLUB.s:65     .text:0000000000000040 .L0 
     /tmp/ccjMLLUB.s:67     .text:0000000000000044 .L0 
     /tmp/ccjMLLUB.s:72     .text:0000000000000048 .L0 
     /tmp/ccjMLLUB.s:75     .text:000000000000004c .L0 
     /tmp/ccjMLLUB.s:76     .text:0000000000000050 .L0 
     /tmp/ccjMLLUB.s:82     .text:0000000000000050 _Z8mem_freePv
     /tmp/ccjMLLUB.s:85     .text:0000000000000050 .L0 
     /tmp/ccjMLLUB.s:87     .text:0000000000000050 .L0 
     /tmp/ccjMLLUB.s:88     .text:0000000000000054 .L0 
     /tmp/ccjMLLUB.s:91     .text:000000000000005c .L0 
     /tmp/ccjMLLUB.s:92     .text:000000000000005c .L0 
     /tmp/ccjMLLUB.s:94     .text:0000000000000060 .L0 
     /tmp/ccjMLLUB.s:96     .text:0000000000000060 .L0 
     /tmp/ccjMLLUB.s:97     .text:0000000000000060 .L0 
     /tmp/ccjMLLUB.s:100    .text:0000000000000068 .L0 
     /tmp/ccjMLLUB.s:101    .text:000000000000006c .L0 
     /tmp/ccjMLLUB.s:103    .text:0000000000000070 .L0 
     /tmp/ccjMLLUB.s:104    .text:0000000000000070 .L0 
     /tmp/ccjMLLUB.s:106    .text:0000000000000074 .L0 
     /tmp/ccjMLLUB.s:108    .text:0000000000000078 .L0 
     /tmp/ccjMLLUB.s:114    .text:0000000000000078 _Z13thread_createPP3TCBPFvPvES2_
     /tmp/ccjMLLUB.s:117    .text:0000000000000078 .L0 
     /tmp/ccjMLLUB.s:119    .text:0000000000000078 .L0 
     /tmp/ccjMLLUB.s:120    .text:0000000000000078 .L0 
     /tmp/ccjMLLUB.s:122    .text:000000000000007c .L0 
     /tmp/ccjMLLUB.s:124    .text:0000000000000080 .L0 
     /tmp/ccjMLLUB.s:125    .text:0000000000000084 .L0 
     /tmp/ccjMLLUB.s:128    .text:000000000000008c .L0 
GAS LISTING /tmp/ccjMLLUB.s 			page 20


     /tmp/ccjMLLUB.s:129    .text:000000000000008c .L0 
     /tmp/ccjMLLUB.s:131    .text:0000000000000090 .L0 
     /tmp/ccjMLLUB.s:133    .text:0000000000000090 .L0 
     /tmp/ccjMLLUB.s:134    .text:0000000000000090 .L0 
     /tmp/ccjMLLUB.s:137    .text:0000000000000098 .L0 
     /tmp/ccjMLLUB.s:138    .text:0000000000000098 .L0 
     /tmp/ccjMLLUB.s:140    .text:000000000000009c .L0 
     /tmp/ccjMLLUB.s:141    .text:000000000000009c .L0 
     /tmp/ccjMLLUB.s:143    .text:00000000000000a0 .L0 
     /tmp/ccjMLLUB.s:144    .text:00000000000000a0 .L0 
     /tmp/ccjMLLUB.s:146    .text:00000000000000a4 .L0 
     /tmp/ccjMLLUB.s:147    .text:00000000000000a4 .L0 
     /tmp/ccjMLLUB.s:152    .text:00000000000000b0 .L0 
     /tmp/ccjMLLUB.s:155    .text:00000000000000b4 .L0 
     /tmp/ccjMLLUB.s:156    .text:00000000000000b4 .L0 
   src/syscall_c.cpp:36     .text:00000000000000b8 .L0 
     /tmp/ccjMLLUB.s:163    .text:00000000000000bc .L0 
     /tmp/ccjMLLUB.s:165    .text:00000000000000bc .L0 
   src/syscall_c.cpp:37     .text:00000000000000c0 .L0 
     /tmp/ccjMLLUB.s:172    .text:00000000000000c4 .L0 
     /tmp/ccjMLLUB.s:174    .text:00000000000000c4 .L0 
   src/syscall_c.cpp:38     .text:00000000000000c8 .L0 
     /tmp/ccjMLLUB.s:181    .text:00000000000000cc .L0 
     /tmp/ccjMLLUB.s:183    .text:00000000000000cc .L0 
   src/syscall_c.cpp:39     .text:00000000000000d0 .L0 
     /tmp/ccjMLLUB.s:190    .text:00000000000000d4 .L0 
     /tmp/ccjMLLUB.s:192    .text:00000000000000d4 .L0 
   src/syscall_c.cpp:40     .text:00000000000000d8 .L0 
     /tmp/ccjMLLUB.s:199    .text:00000000000000dc .L0 
     /tmp/ccjMLLUB.s:201    .text:00000000000000dc .L0 
     /tmp/ccjMLLUB.s:204    .text:00000000000000e4 .L0 
     /tmp/ccjMLLUB.s:205    .text:00000000000000e4 .L0 
     /tmp/ccjMLLUB.s:207    .text:00000000000000e8 .L0 
   src/syscall_c.cpp:45     .text:00000000000000e8 .L0 
     /tmp/ccjMLLUB.s:215    .text:00000000000000f0 .L0 
     /tmp/ccjMLLUB.s:216    .text:00000000000000f0 .L0 
     /tmp/ccjMLLUB.s:218    .text:00000000000000f4 .L0 
     /tmp/ccjMLLUB.s:220    .text:00000000000000f8 .L0 
     /tmp/ccjMLLUB.s:223    .text:00000000000000fc .L0 
     /tmp/ccjMLLUB.s:224    .text:0000000000000100 .L0 
     /tmp/ccjMLLUB.s:225    .text:0000000000000100 .L0 
     /tmp/ccjMLLUB.s:227    .text:0000000000000104 .L0 
     /tmp/ccjMLLUB.s:228    .text:0000000000000104 .L0 
     /tmp/ccjMLLUB.s:230    .text:0000000000000108 .L0 
     /tmp/ccjMLLUB.s:233    .text:000000000000010c .L0 
     /tmp/ccjMLLUB.s:235    .text:000000000000010c .L0 
     /tmp/ccjMLLUB.s:239    .text:0000000000000114 .L0 
     /tmp/ccjMLLUB.s:240    .text:0000000000000114 .L0 
     /tmp/ccjMLLUB.s:241    .text:0000000000000114 .L0 
     /tmp/ccjMLLUB.s:243    .text:0000000000000114 .L0 
     /tmp/ccjMLLUB.s:251    .text:0000000000000120 .L0 
     /tmp/ccjMLLUB.s:252    .text:0000000000000124 .L0 
     /tmp/ccjMLLUB.s:258    .text:0000000000000124 _Z12thread_startP3TCB
     /tmp/ccjMLLUB.s:261    .text:0000000000000124 .L0 
     /tmp/ccjMLLUB.s:263    .text:0000000000000124 .L0 
     /tmp/ccjMLLUB.s:264    .text:0000000000000124 .L0 
     /tmp/ccjMLLUB.s:266    .text:0000000000000128 .L0 
GAS LISTING /tmp/ccjMLLUB.s 			page 21


     /tmp/ccjMLLUB.s:267    .text:000000000000012c .L0 
     /tmp/ccjMLLUB.s:270    .text:0000000000000134 .L0 
     /tmp/ccjMLLUB.s:271    .text:0000000000000134 .L0 
     /tmp/ccjMLLUB.s:273    .text:0000000000000138 .L0 
     /tmp/ccjMLLUB.s:275    .text:0000000000000138 .L0 
     /tmp/ccjMLLUB.s:276    .text:0000000000000138 .L0 
     /tmp/ccjMLLUB.s:279    .text:0000000000000140 .L0 
     /tmp/ccjMLLUB.s:280    .text:0000000000000140 .L0 
     /tmp/ccjMLLUB.s:282    .text:0000000000000144 .L0 
     /tmp/ccjMLLUB.s:283    .text:0000000000000144 .L0 
   src/syscall_c.cpp:59     .text:0000000000000148 .L0 
     /tmp/ccjMLLUB.s:290    .text:000000000000014c .L0 
     /tmp/ccjMLLUB.s:292    .text:000000000000014c .L0 
   src/syscall_c.cpp:60     .text:0000000000000150 .L0 
     /tmp/ccjMLLUB.s:299    .text:0000000000000154 .L0 
     /tmp/ccjMLLUB.s:301    .text:0000000000000154 .L0 
     /tmp/ccjMLLUB.s:304    .text:000000000000015c .L0 
     /tmp/ccjMLLUB.s:305    .text:000000000000015c .L0 
     /tmp/ccjMLLUB.s:308    .text:0000000000000160 .L0 
   src/syscall_c.cpp:65     .text:0000000000000160 .L0 
     /tmp/ccjMLLUB.s:316    .text:0000000000000168 .L0 
     /tmp/ccjMLLUB.s:317    .text:0000000000000168 .L0 
     /tmp/ccjMLLUB.s:319    .text:000000000000016c .L0 
     /tmp/ccjMLLUB.s:321    .text:0000000000000170 .L0 
     /tmp/ccjMLLUB.s:324    .text:0000000000000174 .L0 
     /tmp/ccjMLLUB.s:325    .text:0000000000000178 .L0 
     /tmp/ccjMLLUB.s:326    .text:0000000000000178 .L0 
     /tmp/ccjMLLUB.s:328    .text:000000000000017c .L0 
     /tmp/ccjMLLUB.s:329    .text:000000000000017c .L0 
     /tmp/ccjMLLUB.s:331    .text:0000000000000180 .L0 
     /tmp/ccjMLLUB.s:334    .text:0000000000000184 .L0 
     /tmp/ccjMLLUB.s:336    .text:0000000000000184 .L0 
     /tmp/ccjMLLUB.s:340    .text:000000000000018c .L0 
     /tmp/ccjMLLUB.s:341    .text:000000000000018c .L0 
     /tmp/ccjMLLUB.s:342    .text:000000000000018c .L0 
     /tmp/ccjMLLUB.s:344    .text:000000000000018c .L0 
     /tmp/ccjMLLUB.s:347    .text:0000000000000190 .L0 
     /tmp/ccjMLLUB.s:348    .text:0000000000000194 .L0 
     /tmp/ccjMLLUB.s:354    .text:0000000000000194 _Z11thread_exitv
     /tmp/ccjMLLUB.s:357    .text:0000000000000194 .L0 
     /tmp/ccjMLLUB.s:358    .text:0000000000000194 .L0 
     /tmp/ccjMLLUB.s:359    .text:0000000000000198 .L0 
     /tmp/ccjMLLUB.s:362    .text:00000000000001a0 .L0 
     /tmp/ccjMLLUB.s:363    .text:00000000000001a0 .L0 
     /tmp/ccjMLLUB.s:365    .text:00000000000001a4 .L0 
     /tmp/ccjMLLUB.s:367    .text:00000000000001a4 .L0 
     /tmp/ccjMLLUB.s:368    .text:00000000000001a4 .L0 
     /tmp/ccjMLLUB.s:371    .text:00000000000001ac .L0 
     /tmp/ccjMLLUB.s:372    .text:00000000000001ac .L0 
   src/syscall_c.cpp:75     .text:00000000000001b0 .L0 
     /tmp/ccjMLLUB.s:379    .text:00000000000001b4 .L0 
     /tmp/ccjMLLUB.s:381    .text:00000000000001b4 .L0 
     /tmp/ccjMLLUB.s:384    .text:00000000000001bc .L0 
     /tmp/ccjMLLUB.s:385    .text:00000000000001bc .L0 
     /tmp/ccjMLLUB.s:387    .text:00000000000001c4 .L0 
     /tmp/ccjMLLUB.s:389    .text:00000000000001c8 .L0 
     /tmp/ccjMLLUB.s:390    .text:00000000000001c8 .L0 
GAS LISTING /tmp/ccjMLLUB.s 			page 22


     /tmp/ccjMLLUB.s:392    .text:00000000000001cc .L0 
     /tmp/ccjMLLUB.s:394    .text:00000000000001d0 .L0 
     /tmp/ccjMLLUB.s:400    .text:00000000000001d0 _Z15thread_dispatchv
     /tmp/ccjMLLUB.s:403    .text:00000000000001d0 .L0 
     /tmp/ccjMLLUB.s:404    .text:00000000000001d0 .L0 
     /tmp/ccjMLLUB.s:405    .text:00000000000001d4 .L0 
     /tmp/ccjMLLUB.s:408    .text:00000000000001dc .L0 
     /tmp/ccjMLLUB.s:409    .text:00000000000001dc .L0 
     /tmp/ccjMLLUB.s:411    .text:00000000000001e0 .L0 
     /tmp/ccjMLLUB.s:413    .text:00000000000001e0 .L0 
     /tmp/ccjMLLUB.s:414    .text:00000000000001e0 .L0 
     /tmp/ccjMLLUB.s:417    .text:00000000000001e8 .L0 
     /tmp/ccjMLLUB.s:418    .text:00000000000001e8 .L0 
   src/syscall_c.cpp:89     .text:00000000000001ec .L0 
     /tmp/ccjMLLUB.s:425    .text:00000000000001f0 .L0 
     /tmp/ccjMLLUB.s:427    .text:00000000000001f0 .L0 
     /tmp/ccjMLLUB.s:430    .text:00000000000001f8 .L0 
     /tmp/ccjMLLUB.s:431    .text:00000000000001fc .L0 
     /tmp/ccjMLLUB.s:433    .text:0000000000000200 .L0 
     /tmp/ccjMLLUB.s:434    .text:0000000000000200 .L0 
     /tmp/ccjMLLUB.s:436    .text:0000000000000204 .L0 
     /tmp/ccjMLLUB.s:438    .text:0000000000000208 .L0 
     /tmp/ccjMLLUB.s:444    .text:0000000000000208 _Z8sem_openPP4_semj
     /tmp/ccjMLLUB.s:447    .text:0000000000000208 .L0 
     /tmp/ccjMLLUB.s:449    .text:0000000000000208 .L0 
     /tmp/ccjMLLUB.s:450    .text:0000000000000208 .L0 
     /tmp/ccjMLLUB.s:452    .text:000000000000020c .L0 
     /tmp/ccjMLLUB.s:453    .text:0000000000000210 .L0 
     /tmp/ccjMLLUB.s:456    .text:0000000000000218 .L0 
     /tmp/ccjMLLUB.s:457    .text:0000000000000218 .L0 
     /tmp/ccjMLLUB.s:459    .text:000000000000021c .L0 
     /tmp/ccjMLLUB.s:461    .text:000000000000021c .L0 
     /tmp/ccjMLLUB.s:462    .text:000000000000021c .L0 
     /tmp/ccjMLLUB.s:465    .text:0000000000000224 .L0 
     /tmp/ccjMLLUB.s:466    .text:0000000000000224 .L0 
     /tmp/ccjMLLUB.s:468    .text:0000000000000228 .L0 
     /tmp/ccjMLLUB.s:469    .text:0000000000000228 .L0 
     /tmp/ccjMLLUB.s:473    .text:0000000000000230 .L0 
     /tmp/ccjMLLUB.s:475    .text:0000000000000234 .L0 
     /tmp/ccjMLLUB.s:476    .text:0000000000000234 .L0 
   src/syscall_c.cpp:104    .text:0000000000000238 .L0 
     /tmp/ccjMLLUB.s:483    .text:000000000000023c .L0 
     /tmp/ccjMLLUB.s:485    .text:000000000000023c .L0 
   src/syscall_c.cpp:105    .text:0000000000000240 .L0 
     /tmp/ccjMLLUB.s:492    .text:0000000000000244 .L0 
     /tmp/ccjMLLUB.s:494    .text:0000000000000244 .L0 
   src/syscall_c.cpp:106    .text:0000000000000248 .L0 
     /tmp/ccjMLLUB.s:501    .text:000000000000024c .L0 
     /tmp/ccjMLLUB.s:503    .text:000000000000024c .L0 
     /tmp/ccjMLLUB.s:506    .text:0000000000000254 .L0 
     /tmp/ccjMLLUB.s:507    .text:0000000000000254 .L0 
     /tmp/ccjMLLUB.s:509    .text:0000000000000258 .L0 
     /tmp/ccjMLLUB.s:510    .text:000000000000025c .L0 
     /tmp/ccjMLLUB.s:512    .text:0000000000000260 .L0 
     /tmp/ccjMLLUB.s:513    .text:0000000000000260 .L0 
     /tmp/ccjMLLUB.s:515    .text:0000000000000264 .L0 
     /tmp/ccjMLLUB.s:520    .text:0000000000000268 .L0 
GAS LISTING /tmp/ccjMLLUB.s 			page 23


     /tmp/ccjMLLUB.s:523    .text:000000000000026c .L0 
     /tmp/ccjMLLUB.s:524    .text:0000000000000270 .L0 
     /tmp/ccjMLLUB.s:530    .text:0000000000000270 _Z9sem_closeP4_sem
     /tmp/ccjMLLUB.s:533    .text:0000000000000270 .L0 
     /tmp/ccjMLLUB.s:535    .text:0000000000000270 .L0 
     /tmp/ccjMLLUB.s:536    .text:0000000000000274 .L0 
     /tmp/ccjMLLUB.s:539    .text:000000000000027c .L0 
     /tmp/ccjMLLUB.s:540    .text:000000000000027c .L0 
     /tmp/ccjMLLUB.s:542    .text:0000000000000280 .L0 
     /tmp/ccjMLLUB.s:544    .text:0000000000000280 .L0 
     /tmp/ccjMLLUB.s:545    .text:0000000000000280 .L0 
     /tmp/ccjMLLUB.s:548    .text:0000000000000288 .L0 
     /tmp/ccjMLLUB.s:549    .text:0000000000000288 .L0 
     /tmp/ccjMLLUB.s:551    .text:000000000000028c .L0 
     /tmp/ccjMLLUB.s:552    .text:000000000000028c .L0 
   src/syscall_c.cpp:118    .text:0000000000000290 .L0 
     /tmp/ccjMLLUB.s:559    .text:0000000000000294 .L0 
     /tmp/ccjMLLUB.s:561    .text:0000000000000294 .L0 
   src/syscall_c.cpp:119    .text:0000000000000298 .L0 
     /tmp/ccjMLLUB.s:568    .text:000000000000029c .L0 
     /tmp/ccjMLLUB.s:570    .text:000000000000029c .L0 
     /tmp/ccjMLLUB.s:573    .text:00000000000002a4 .L0 
     /tmp/ccjMLLUB.s:574    .text:00000000000002a4 .L0 
     /tmp/ccjMLLUB.s:576    .text:00000000000002ac .L0 
     /tmp/ccjMLLUB.s:578    .text:00000000000002b0 .L0 
     /tmp/ccjMLLUB.s:579    .text:00000000000002b0 .L0 
     /tmp/ccjMLLUB.s:581    .text:00000000000002b4 .L0 
     /tmp/ccjMLLUB.s:584    .text:00000000000002b8 .L0 
     /tmp/ccjMLLUB.s:590    .text:00000000000002b8 _Z8sem_waitP4_sem
     /tmp/ccjMLLUB.s:593    .text:00000000000002b8 .L0 
     /tmp/ccjMLLUB.s:595    .text:00000000000002b8 .L0 
     /tmp/ccjMLLUB.s:596    .text:00000000000002bc .L0 
     /tmp/ccjMLLUB.s:599    .text:00000000000002c4 .L0 
     /tmp/ccjMLLUB.s:600    .text:00000000000002c4 .L0 
     /tmp/ccjMLLUB.s:602    .text:00000000000002c8 .L0 
     /tmp/ccjMLLUB.s:604    .text:00000000000002c8 .L0 
     /tmp/ccjMLLUB.s:605    .text:00000000000002c8 .L0 
     /tmp/ccjMLLUB.s:608    .text:00000000000002d0 .L0 
     /tmp/ccjMLLUB.s:609    .text:00000000000002d0 .L0 
     /tmp/ccjMLLUB.s:611    .text:00000000000002d4 .L0 
     /tmp/ccjMLLUB.s:612    .text:00000000000002d4 .L0 
   src/syscall_c.cpp:131    .text:00000000000002d8 .L0 
     /tmp/ccjMLLUB.s:619    .text:00000000000002dc .L0 
     /tmp/ccjMLLUB.s:621    .text:00000000000002dc .L0 
   src/syscall_c.cpp:132    .text:00000000000002e0 .L0 
     /tmp/ccjMLLUB.s:628    .text:00000000000002e4 .L0 
     /tmp/ccjMLLUB.s:630    .text:00000000000002e4 .L0 
     /tmp/ccjMLLUB.s:633    .text:00000000000002ec .L0 
     /tmp/ccjMLLUB.s:634    .text:00000000000002ec .L0 
     /tmp/ccjMLLUB.s:637    .text:00000000000002f0 .L0 
   src/syscall_c.cpp:137    .text:00000000000002f0 .L0 
     /tmp/ccjMLLUB.s:645    .text:00000000000002f8 .L0 
     /tmp/ccjMLLUB.s:646    .text:00000000000002f8 .L0 
     /tmp/ccjMLLUB.s:648    .text:00000000000002fc .L0 
     /tmp/ccjMLLUB.s:650    .text:0000000000000304 .L0 
     /tmp/ccjMLLUB.s:652    .text:0000000000000308 .L0 
     /tmp/ccjMLLUB.s:653    .text:0000000000000308 .L0 
GAS LISTING /tmp/ccjMLLUB.s 			page 24


     /tmp/ccjMLLUB.s:655    .text:000000000000030c .L0 
     /tmp/ccjMLLUB.s:657    .text:0000000000000310 .L0 
     /tmp/ccjMLLUB.s:663    .text:0000000000000310 _Z10sem_signalP4_sem
     /tmp/ccjMLLUB.s:666    .text:0000000000000310 .L0 
     /tmp/ccjMLLUB.s:668    .text:0000000000000310 .L0 
     /tmp/ccjMLLUB.s:669    .text:0000000000000314 .L0 
     /tmp/ccjMLLUB.s:672    .text:000000000000031c .L0 
     /tmp/ccjMLLUB.s:673    .text:000000000000031c .L0 
     /tmp/ccjMLLUB.s:675    .text:0000000000000320 .L0 
     /tmp/ccjMLLUB.s:677    .text:0000000000000320 .L0 
     /tmp/ccjMLLUB.s:678    .text:0000000000000320 .L0 
     /tmp/ccjMLLUB.s:681    .text:0000000000000328 .L0 
     /tmp/ccjMLLUB.s:682    .text:0000000000000328 .L0 
     /tmp/ccjMLLUB.s:684    .text:000000000000032c .L0 
     /tmp/ccjMLLUB.s:685    .text:000000000000032c .L0 
   src/syscall_c.cpp:147    .text:0000000000000330 .L0 
     /tmp/ccjMLLUB.s:692    .text:0000000000000334 .L0 
     /tmp/ccjMLLUB.s:694    .text:0000000000000334 .L0 
   src/syscall_c.cpp:148    .text:0000000000000338 .L0 
     /tmp/ccjMLLUB.s:701    .text:000000000000033c .L0 
     /tmp/ccjMLLUB.s:703    .text:000000000000033c .L0 
     /tmp/ccjMLLUB.s:706    .text:0000000000000344 .L0 
     /tmp/ccjMLLUB.s:707    .text:0000000000000344 .L0 
     /tmp/ccjMLLUB.s:710    .text:0000000000000348 .L0 
   src/syscall_c.cpp:153    .text:0000000000000348 .L0 
     /tmp/ccjMLLUB.s:718    .text:0000000000000350 .L0 
     /tmp/ccjMLLUB.s:719    .text:0000000000000350 .L0 
     /tmp/ccjMLLUB.s:721    .text:0000000000000354 .L0 
     /tmp/ccjMLLUB.s:723    .text:000000000000035c .L0 
     /tmp/ccjMLLUB.s:725    .text:0000000000000360 .L0 
     /tmp/ccjMLLUB.s:726    .text:0000000000000360 .L0 
     /tmp/ccjMLLUB.s:728    .text:0000000000000364 .L0 
     /tmp/ccjMLLUB.s:730    .text:0000000000000368 .L0 
     /tmp/ccjMLLUB.s:736    .text:0000000000000368 _Z4getcv
     /tmp/ccjMLLUB.s:739    .text:0000000000000368 .L0 
     /tmp/ccjMLLUB.s:740    .text:0000000000000368 .L0 
     /tmp/ccjMLLUB.s:741    .text:000000000000036c .L0 
     /tmp/ccjMLLUB.s:744    .text:0000000000000374 .L0 
     /tmp/ccjMLLUB.s:745    .text:0000000000000374 .L0 
     /tmp/ccjMLLUB.s:747    .text:0000000000000378 .L0 
     /tmp/ccjMLLUB.s:749    .text:0000000000000378 .L0 
     /tmp/ccjMLLUB.s:750    .text:0000000000000378 .L0 
     /tmp/ccjMLLUB.s:753    .text:0000000000000380 .L0 
     /tmp/ccjMLLUB.s:754    .text:0000000000000384 .L0 
     /tmp/ccjMLLUB.s:756    .text:0000000000000388 .L0 
     /tmp/ccjMLLUB.s:757    .text:0000000000000388 .L0 
     /tmp/ccjMLLUB.s:759    .text:000000000000038c .L0 
     /tmp/ccjMLLUB.s:761    .text:0000000000000390 .L0 
     /tmp/ccjMLLUB.s:767    .text:0000000000000390 _Z4putcc
     /tmp/ccjMLLUB.s:770    .text:0000000000000390 .L0 
     /tmp/ccjMLLUB.s:772    .text:0000000000000390 .L0 
     /tmp/ccjMLLUB.s:773    .text:0000000000000394 .L0 
     /tmp/ccjMLLUB.s:776    .text:000000000000039c .L0 
     /tmp/ccjMLLUB.s:777    .text:000000000000039c .L0 
     /tmp/ccjMLLUB.s:779    .text:00000000000003a0 .L0 
     /tmp/ccjMLLUB.s:781    .text:00000000000003a0 .L0 
     /tmp/ccjMLLUB.s:782    .text:00000000000003a0 .L0 
GAS LISTING /tmp/ccjMLLUB.s 			page 25


     /tmp/ccjMLLUB.s:785    .text:00000000000003a8 .L0 
     /tmp/ccjMLLUB.s:786    .text:00000000000003ac .L0 
     /tmp/ccjMLLUB.s:788    .text:00000000000003b0 .L0 
     /tmp/ccjMLLUB.s:789    .text:00000000000003b0 .L0 
     /tmp/ccjMLLUB.s:791    .text:00000000000003b4 .L0 
     /tmp/ccjMLLUB.s:793    .text:00000000000003b8 .L0 
     /tmp/ccjMLLUB.s:804    .text:00000000000003b8 .L0 
     /tmp/ccjMLLUB.s:70     .text:0000000000000048 .L5
     /tmp/ccjMLLUB.s:238    .text:0000000000000114 .L14
     /tmp/ccjMLLUB.s:247    .text:000000000000011c .L15
     /tmp/ccjMLLUB.s:232    .text:000000000000010c .L21
     /tmp/ccjMLLUB.s:221    .text:00000000000000fc .L13
     /tmp/ccjMLLUB.s:339    .text:000000000000018c .L24
     /tmp/ccjMLLUB.s:333    .text:0000000000000184 .L30
     /tmp/ccjMLLUB.s:322    .text:0000000000000174 .L23
     /tmp/ccjMLLUB.s:518    .text:0000000000000268 .L37
     /tmp/ccjMLLUB.s:2055   .debug_abbrev:0000000000000000 .Ldebug_abbrev0
     /tmp/ccjMLLUB.s:3425   .debug_str:00000000000005c0 .LASF118
     /tmp/ccjMLLUB.s:3321   .debug_str:0000000000000338 .LASF119
     /tmp/ccjMLLUB.s:3263   .debug_str:00000000000001ae .LASF120
     /tmp/ccjMLLUB.s:5      .text:0000000000000000 .Ltext0
     /tmp/ccjMLLUB.s:796    .text:00000000000003b8 .Letext0
     /tmp/ccjMLLUB.s:3207   .debug_line:0000000000000000 .Ldebug_line0
     /tmp/ccjMLLUB.s:3279   .debug_str:000000000000021c .LASF0
     /tmp/ccjMLLUB.s:3299   .debug_str:00000000000002ba .LASF1
     /tmp/ccjMLLUB.s:3369   .debug_str:0000000000000471 .LASF2
     /tmp/ccjMLLUB.s:3377   .debug_str:00000000000004a8 .LASF4
     /tmp/ccjMLLUB.s:3285   .debug_str:000000000000023f .LASF3
     /tmp/ccjMLLUB.s:3217   .debug_str:0000000000000053 .LASF5
     /tmp/ccjMLLUB.s:3349   .debug_str:00000000000003fc .LASF6
     /tmp/ccjMLLUB.s:3289   .debug_str:000000000000026e .LASF7
     /tmp/ccjMLLUB.s:3261   .debug_str:000000000000019e .LASF8
     /tmp/ccjMLLUB.s:3265   .debug_str:00000000000001cc .LASF9
     /tmp/ccjMLLUB.s:3235   .debug_str:00000000000000df .LASF10
     /tmp/ccjMLLUB.s:3259   .debug_str:000000000000018f .LASF11
     /tmp/ccjMLLUB.s:3239   .debug_str:0000000000000101 .LASF12
     /tmp/ccjMLLUB.s:3233   .debug_str:00000000000000cf .LASF13
     /tmp/ccjMLLUB.s:3407   .debug_str:0000000000000569 .LASF14
     /tmp/ccjMLLUB.s:3249   .debug_str:0000000000000133 .LASF15
     /tmp/ccjMLLUB.s:3391   .debug_str:00000000000004e8 .LASF16
     /tmp/ccjMLLUB.s:3451   .debug_str:0000000000000722 .LASF34
     /tmp/ccjMLLUB.s:3437   .debug_str:00000000000006c7 .LASF121
     /tmp/ccjMLLUB.s:3401   .debug_str:0000000000000552 .LASF17
     /tmp/ccjMLLUB.s:3335   .debug_str:0000000000000399 .LASF18
     /tmp/ccjMLLUB.s:3327   .debug_str:0000000000000366 .LASF19
     /tmp/ccjMLLUB.s:3393   .debug_str:00000000000004fe .LASF21
     /tmp/ccjMLLUB.s:3257   .debug_str:0000000000000178 .LASF26
     /tmp/ccjMLLUB.s:3371   .debug_str:000000000000047f .LASF81
     /tmp/ccjMLLUB.s:3367   .debug_str:000000000000045a .LASF83
     /tmp/ccjMLLUB.s:3293   .debug_str:000000000000029e .LASF20
     /tmp/ccjMLLUB.s:3229   .debug_str:00000000000000a1 .LASF22
     /tmp/ccjMLLUB.s:3307   .debug_str:00000000000002f9 .LASF23
     /tmp/ccjMLLUB.s:3251   .debug_str:0000000000000149 .LASF24
     /tmp/ccjMLLUB.s:3345   .debug_str:00000000000003e8 .LASF25
     /tmp/ccjMLLUB.s:3455   .debug_str:000000000000073c .LASF27
     /tmp/ccjMLLUB.s:3477   .debug_str:00000000000007e3 .LASF28
     /tmp/ccjMLLUB.s:3467   .debug_str:000000000000079a .LASF29
GAS LISTING /tmp/ccjMLLUB.s 			page 26


     /tmp/ccjMLLUB.s:3383   .debug_str:00000000000004c5 .LASF30
     /tmp/ccjMLLUB.s:3287   .debug_str:0000000000000251 .LASF31
     /tmp/ccjMLLUB.s:3359   .debug_str:0000000000000433 .LASF32
     /tmp/ccjMLLUB.s:3211   .debug_str:0000000000000005 .LASF33
     /tmp/ccjMLLUB.s:3463   .debug_str:000000000000078d .LASF122
     /tmp/ccjMLLUB.s:3355   .debug_str:0000000000000421 .LASF35
     /tmp/ccjMLLUB.s:3417   .debug_str:0000000000000598 .LASF36
     /tmp/ccjMLLUB.s:3385   .debug_str:00000000000004d0 .LASF37
     /tmp/ccjMLLUB.s:3225   .debug_str:000000000000008a .LASF38
     /tmp/ccjMLLUB.s:3313   .debug_str:0000000000000312 .LASF39
     /tmp/ccjMLLUB.s:3413   .debug_str:0000000000000585 .LASF123
     /tmp/ccjMLLUB.s:3379   .debug_str:00000000000004af .LASF40
     /tmp/ccjMLLUB.s:3215   .debug_str:0000000000000047 .LASF41
     /tmp/ccjMLLUB.s:3415   .debug_str:000000000000058d .LASF42
     /tmp/ccjMLLUB.s:3333   .debug_str:0000000000000382 .LASF43
     /tmp/ccjMLLUB.s:3223   .debug_str:000000000000007e .LASF44
     /tmp/ccjMLLUB.s:3435   .debug_str:00000000000006b0 .LASF45
     /tmp/ccjMLLUB.s:3329   .debug_str:000000000000036b .LASF46
     /tmp/ccjMLLUB.s:3219   .debug_str:000000000000005a .LASF47
     /tmp/ccjMLLUB.s:3303   .debug_str:00000000000002d3 .LASF48
     /tmp/ccjMLLUB.s:3441   .debug_str:00000000000006da .LASF49
     /tmp/ccjMLLUB.s:3405   .debug_str:000000000000055c .LASF50
     /tmp/ccjMLLUB.s:3457   .debug_str:000000000000075a .LASF51
     /tmp/ccjMLLUB.s:3343   .debug_str:00000000000003e3 .LASF124
     /tmp/ccjMLLUB.s:3301   .debug_str:00000000000002cd .LASF125
     /tmp/ccjMLLUB.s:3427   .debug_str:0000000000000684 .LASF126
     /tmp/ccjMLLUB.s:3465   .debug_str:0000000000000794 .LASF52
     /tmp/ccjMLLUB.s:3453   .debug_str:000000000000072c .LASF53
     /tmp/ccjMLLUB.s:3423   .debug_str:00000000000005b8 .LASF127
     /tmp/ccjMLLUB.s:3399   .debug_str:000000000000053b .LASF128
     /tmp/ccjMLLUB.s:3209   .debug_str:0000000000000000 .LASF54
     /tmp/ccjMLLUB.s:3387   .debug_str:00000000000004d8 .LASF55
     /tmp/ccjMLLUB.s:3433   .debug_str:00000000000006a8 .LASF56
     /tmp/ccjMLLUB.s:3429   .debug_str:0000000000000694 .LASF57
     /tmp/ccjMLLUB.s:3447   .debug_str:0000000000000712 .LASF58
     /tmp/ccjMLLUB.s:3241   .debug_str:0000000000000111 .LASF129
     /tmp/ccjMLLUB.s:3213   .debug_str:000000000000001f .LASF130
     /tmp/ccjMLLUB.s:3243   .debug_str:000000000000011f .LASF59
     /tmp/ccjMLLUB.s:3237   .debug_str:00000000000000ee .LASF61
     /tmp/ccjMLLUB.s:3381   .debug_str:00000000000004b4 .LASF131
     /tmp/ccjMLLUB.s:3227   .debug_str:0000000000000093 .LASF60
     /tmp/ccjMLLUB.s:3305   .debug_str:00000000000002e0 .LASF62
     /tmp/ccjMLLUB.s:3375   .debug_str:000000000000049d .LASF63
     /tmp/ccjMLLUB.s:3459   .debug_str:000000000000077c .LASF64
     /tmp/ccjMLLUB.s:3363   .debug_str:000000000000044c .LASF65
     /tmp/ccjMLLUB.s:3403   .debug_str:0000000000000557 .LASF66
     /tmp/ccjMLLUB.s:3247   .debug_str:000000000000012d .LASF67
     /tmp/ccjMLLUB.s:3317   .debug_str:0000000000000326 .LASF68
     /tmp/ccjMLLUB.s:3389   .debug_str:00000000000004de .LASF69
     /tmp/ccjMLLUB.s:3339   .debug_str:00000000000003ad .LASF70
     /tmp/ccjMLLUB.s:3245   .debug_str:0000000000000128 .LASF71
     /tmp/ccjMLLUB.s:3331   .debug_str:0000000000000372 .LASF72
     /tmp/ccjMLLUB.s:3411   .debug_str:000000000000057e .LASF73
     /tmp/ccjMLLUB.s:3395   .debug_str:0000000000000511 .LASF74
     /tmp/ccjMLLUB.s:3253   .debug_str:0000000000000165 .LASF132
     /tmp/ccjMLLUB.s:3255   .debug_str:0000000000000172 .LASF75
     /tmp/ccjMLLUB.s:3449   .debug_str:0000000000000719 .LASF76
GAS LISTING /tmp/ccjMLLUB.s 			page 27


     /tmp/ccjMLLUB.s:3461   .debug_str:0000000000000787 .LASF77
     /tmp/ccjMLLUB.s:3319   .debug_str:0000000000000333 .LASF78
     /tmp/ccjMLLUB.s:3409   .debug_str:0000000000000575 .LASF79
     /tmp/ccjMLLUB.s:768    .text:0000000000000390 .LFB52
     /tmp/ccjMLLUB.s:794    .text:00000000000003b8 .LFE52
     /tmp/ccjMLLUB.s:2936   .debug_loc:0000000000000000 .LLST11
     /tmp/ccjMLLUB.s:783    .text:00000000000003a8 .LVL38
     /tmp/ccjMLLUB.s:3419   .debug_str:000000000000059e .LASF80
     /tmp/ccjMLLUB.s:3281   .debug_str:0000000000000229 .LASF82
     /tmp/ccjMLLUB.s:3445   .debug_str:0000000000000709 .LASF84
     /tmp/ccjMLLUB.s:737    .text:0000000000000368 .LFB51
     /tmp/ccjMLLUB.s:762    .text:0000000000000390 .LFE51
     /tmp/ccjMLLUB.s:751    .text:0000000000000380 .LVL36
     /tmp/ccjMLLUB.s:3273   .debug_str:0000000000000201 .LASF85
     /tmp/ccjMLLUB.s:3421   .debug_str:00000000000005a3 .LASF86
     /tmp/ccjMLLUB.s:664    .text:0000000000000310 .LFB50
     /tmp/ccjMLLUB.s:731    .text:0000000000000368 .LFE50
     /tmp/ccjMLLUB.s:2950   .debug_loc:0000000000000039 .LLST10
     /tmp/ccjMLLUB.s:3311   .debug_str:0000000000000308 .LASF87
     /tmp/ccjMLLUB.s:704    .text:0000000000000344 .LVL34
     /tmp/ccjMLLUB.s:3475   .debug_str:00000000000007da .LASF88
     /tmp/ccjMLLUB.s:3473   .debug_str:00000000000007c8 .LASF89
     /tmp/ccjMLLUB.s:591    .text:00000000000002b8 .LFB49
     /tmp/ccjMLLUB.s:658    .text:0000000000000310 .LFE49
     /tmp/ccjMLLUB.s:2969   .debug_loc:0000000000000086 .LLST9
     /tmp/ccjMLLUB.s:631    .text:00000000000002ec .LVL31
     /tmp/ccjMLLUB.s:3357   .debug_str:0000000000000429 .LASF90
     /tmp/ccjMLLUB.s:3221   .debug_str:000000000000006b .LASF91
     /tmp/ccjMLLUB.s:531    .text:0000000000000270 .LFB48
     /tmp/ccjMLLUB.s:585    .text:00000000000002b8 .LFE48
     /tmp/ccjMLLUB.s:3323   .debug_str:000000000000034a .LASF92
     /tmp/ccjMLLUB.s:2988   .debug_loc:00000000000000d3 .LLST8
     /tmp/ccjMLLUB.s:571    .text:00000000000002a4 .LVL28
     /tmp/ccjMLLUB.s:3365   .debug_str:0000000000000451 .LASF93
     /tmp/ccjMLLUB.s:3373   .debug_str:0000000000000489 .LASF94
     /tmp/ccjMLLUB.s:445    .text:0000000000000208 .LFB47
     /tmp/ccjMLLUB.s:525    .text:0000000000000270 .LFE47
     /tmp/ccjMLLUB.s:3005   .debug_loc:000000000000011e .LLST6
     /tmp/ccjMLLUB.s:3353   .debug_str:000000000000041c .LASF95
     /tmp/ccjMLLUB.s:3030   .debug_loc:0000000000000180 .LLST7
     /tmp/ccjMLLUB.s:3347   .debug_str:00000000000003f4 .LASF96
     /tmp/ccjMLLUB.s:504    .text:0000000000000254 .LVL24
     /tmp/ccjMLLUB.s:3361   .debug_str:000000000000043c .LASF97
     /tmp/ccjMLLUB.s:3325   .debug_str:0000000000000351 .LASF98
     /tmp/ccjMLLUB.s:401    .text:00000000000001d0 .LFB46
     /tmp/ccjMLLUB.s:439    .text:0000000000000208 .LFE46
     /tmp/ccjMLLUB.s:428    .text:00000000000001f8 .LVL21
     /tmp/ccjMLLUB.s:3315   .debug_str:000000000000031a .LASF99
     /tmp/ccjMLLUB.s:3283   .debug_str:000000000000022e .LASF100
     /tmp/ccjMLLUB.s:355    .text:0000000000000194 .LFB45
     /tmp/ccjMLLUB.s:395    .text:00000000000001d0 .LFE45
     /tmp/ccjMLLUB.s:382    .text:00000000000001bc .LVL20
     /tmp/ccjMLLUB.s:3351   .debug_str:000000000000040f .LASF101
     /tmp/ccjMLLUB.s:3443   .debug_str:00000000000006f3 .LASF102
     /tmp/ccjMLLUB.s:259    .text:0000000000000124 .LFB44
     /tmp/ccjMLLUB.s:349    .text:0000000000000194 .LFE44
     /tmp/ccjMLLUB.s:3048   .debug_loc:00000000000001cc .LLST5
GAS LISTING /tmp/ccjMLLUB.s 			page 28


     /tmp/ccjMLLUB.s:302    .text:000000000000015c .LVL16
     /tmp/ccjMLLUB.s:3439   .debug_str:00000000000006cc .LASF103
     /tmp/ccjMLLUB.s:3341   .debug_str:00000000000003c2 .LASF104
     /tmp/ccjMLLUB.s:115    .text:0000000000000078 .LFB43
     /tmp/ccjMLLUB.s:253    .text:0000000000000124 .LFE43
     /tmp/ccjMLLUB.s:3078   .debug_loc:0000000000000242 .LLST2
     /tmp/ccjMLLUB.s:3295   .debug_str:00000000000002a7 .LASF105
     /tmp/ccjMLLUB.s:3114   .debug_loc:00000000000002cd .LLST3
     /tmp/ccjMLLUB.s:3132   .debug_loc:0000000000000319 .LLST4
     /tmp/ccjMLLUB.s:3231   .debug_str:00000000000000be .LASF106
     /tmp/ccjMLLUB.s:3469   .debug_str:00000000000007b5 .LASF107
     /tmp/ccjMLLUB.s:3337   .debug_str:000000000000039e .LASF108
     /tmp/ccjMLLUB.s:150    .text:00000000000000b0 .LVL8
     /tmp/ccjMLLUB.s:202    .text:00000000000000e4 .LVL10
     /tmp/ccjMLLUB.s:3277   .debug_str:0000000000000213 .LASF109
     /tmp/ccjMLLUB.s:3267   .debug_str:00000000000001da .LASF110
     /tmp/ccjMLLUB.s:83     .text:0000000000000050 .LFB42
     /tmp/ccjMLLUB.s:109    .text:0000000000000078 .LFE42
     /tmp/ccjMLLUB.s:3155   .debug_loc:0000000000000379 .LLST1
     /tmp/ccjMLLUB.s:98     .text:0000000000000068 .LVL5
     /tmp/ccjMLLUB.s:3431   .debug_str:000000000000069e .LASF111
     /tmp/ccjMLLUB.s:3271   .debug_str:00000000000001f3 .LASF112
     /tmp/ccjMLLUB.s:41     .text:000000000000001c .LFB41
     /tmp/ccjMLLUB.s:77     .text:0000000000000050 .LFE41
     /tmp/ccjMLLUB.s:3297   .debug_str:00000000000002b5 .LASF113
     /tmp/ccjMLLUB.s:3169   .debug_loc:00000000000003b2 .LLST0
     /tmp/ccjMLLUB.s:59     .text:0000000000000038 .LVL1
     /tmp/ccjMLLUB.s:3397   .debug_str:0000000000000523 .LASF133
     /tmp/ccjMLLUB.s:3291   .debug_str:0000000000000281 .LASF134
     /tmp/ccjMLLUB.s:10     .text:0000000000000000 .LFB40
     /tmp/ccjMLLUB.s:35     .text:000000000000001c .LFE40
     /tmp/ccjMLLUB.s:3309   .debug_str:0000000000000301 .LASF114
     /tmp/ccjMLLUB.s:3275   .debug_str:000000000000020c .LASF115
     /tmp/ccjMLLUB.s:3269   .debug_str:00000000000001e8 .LASF116
     /tmp/ccjMLLUB.s:3471   .debug_str:00000000000007bc .LASF117
     /tmp/ccjMLLUB.s:771    .text:0000000000000390 .LVL37
     /tmp/ccjMLLUB.s:667    .text:0000000000000310 .LVL33
     /tmp/ccjMLLUB.s:708    .text:0000000000000348 .LVL35
     /tmp/ccjMLLUB.s:594    .text:00000000000002b8 .LVL30
     /tmp/ccjMLLUB.s:635    .text:00000000000002f0 .LVL32
     /tmp/ccjMLLUB.s:534    .text:0000000000000270 .LVL27
     /tmp/ccjMLLUB.s:582    .text:00000000000002b4 .LVL29
     /tmp/ccjMLLUB.s:448    .text:0000000000000208 .LVL22
     /tmp/ccjMLLUB.s:517    .text:0000000000000268 .LVL25
     /tmp/ccjMLLUB.s:521    .text:000000000000026c .LVL26
     /tmp/ccjMLLUB.s:470    .text:000000000000022c .LVL23
     /tmp/ccjMLLUB.s:262    .text:0000000000000124 .LVL15
     /tmp/ccjMLLUB.s:306    .text:0000000000000160 .LVL17
     /tmp/ccjMLLUB.s:338    .text:000000000000018c .LVL18
     /tmp/ccjMLLUB.s:345    .text:0000000000000190 .LVL19
     /tmp/ccjMLLUB.s:118    .text:0000000000000078 .LVL6
     /tmp/ccjMLLUB.s:148    .text:00000000000000a8 .LVL7
     /tmp/ccjMLLUB.s:237    .text:0000000000000114 .LVL11
     /tmp/ccjMLLUB.s:244    .text:0000000000000118 .LVL12
     /tmp/ccjMLLUB.s:246    .text:000000000000011c .LVL13
     /tmp/ccjMLLUB.s:249    .text:0000000000000120 .LVL14
     /tmp/ccjMLLUB.s:153    .text:00000000000000b4 .LVL9
GAS LISTING /tmp/ccjMLLUB.s 			page 29


     /tmp/ccjMLLUB.s:86     .text:0000000000000050 .LVL4
     /tmp/ccjMLLUB.s:44     .text:000000000000001c .LVL0
     /tmp/ccjMLLUB.s:69     .text:0000000000000048 .LVL2
     /tmp/ccjMLLUB.s:73     .text:000000000000004c .LVL3
     /tmp/ccjMLLUB.s:805    .debug_info:0000000000000000 .Ldebug_info0

UNDEFINED SYMBOLS
__mem_alloc
__mem_free
__getc
__putc
