GAS LISTING /tmp/ccuRLDGQ.s 			page 1


   1              		.file	"tcb.cpp"
   2              		.option pic
   3              		.option norelax
   4              		.text
   5              	.Ltext0:
   6              		.align	2
   7              		.globl	_ZN3TCB13threadWrapperEv
   9              	_ZN3TCB13threadWrapperEv:
  10              	.LFB43:
  11              		.file 1 "src/tcb.cpp"
   1:src/tcb.cpp   **** //
   2:src/tcb.cpp   **** // Created by os on 8/15/22.
   3:src/tcb.cpp   **** //
   4:src/tcb.cpp   **** 
   5:src/tcb.cpp   **** #include "../h/tcb.hpp"
   6:src/tcb.cpp   **** #include "../h/print.hpp"
   7:src/tcb.cpp   **** #include "../h/riscv.hpp"
   8:src/tcb.cpp   **** #include "../h/syscall_c.hpp"
   9:src/tcb.cpp   **** 
  10:src/tcb.cpp   **** TCB *TCB::running = nullptr;
  11:src/tcb.cpp   **** 
  12:src/tcb.cpp   **** uint64  TCB::timeSliceCounter = 0;
  13:src/tcb.cpp   **** 
  14:src/tcb.cpp   **** TCB* TCB::createThread(Body body, void* arg, uint64* stack){
  15:src/tcb.cpp   ****     return new TCB(body, arg, stack, TIME_SLICE);
  16:src/tcb.cpp   **** }
  17:src/tcb.cpp   **** 
  18:src/tcb.cpp   **** void TCB::yield()
  19:src/tcb.cpp   **** {
  20:src/tcb.cpp   ****     __asm__ volatile ("ecall");
  21:src/tcb.cpp   **** };
  22:src/tcb.cpp   **** 
  23:src/tcb.cpp   **** void TCB::dispatch()
  24:src/tcb.cpp   **** {
  25:src/tcb.cpp   ****     TCB* old = running;
  26:src/tcb.cpp   ****     if (!old->isFinished() && old->status != BLOCKED) { old->status = READY; Scheduler::put(old); }
  27:src/tcb.cpp   ****     running = Scheduler::get();
  28:src/tcb.cpp   ****     running->status = RUNNING;
  29:src/tcb.cpp   **** 
  30:src/tcb.cpp   ****     TCB::contextSwitch(&old->context, &running->context);
  31:src/tcb.cpp   **** }
  32:src/tcb.cpp   **** 
  33:src/tcb.cpp   **** void TCB::threadWrapper()
  34:src/tcb.cpp   **** {
  12              		.loc 1 34 1
  13              		.cfi_startproc
  14 0000 130101FF 		addi	sp,sp,-16
  15              		.cfi_def_cfa_offset 16
  16 0004 23341100 		sd	ra,8(sp)
  17 0008 23308100 		sd	s0,0(sp)
  18              		.cfi_offset 1, -8
  19              		.cfi_offset 8, -16
  20 000c 13040101 		addi	s0,sp,16
  21              		.cfi_def_cfa 8, 0
  35:src/tcb.cpp   ****     Riscv::popSppSpie();
  22              		.loc 1 35 5
  23              		.loc 1 35 22 is_stmt 0
GAS LISTING /tmp/ccuRLDGQ.s 			page 2


  24 0010 97000000 		call	_ZN5Riscv10popSppSpieEv@plt
  24      E7800000 
  25              	.LVL0:
  36:src/tcb.cpp   ****     running->body(running->arg);
  26              		.loc 1 36 5 is_stmt 1
  27              		.loc 1 36 14 is_stmt 0
  28 0018 97070000 		ld	a5,.LANCHOR0
  28      83B70700 
  29 0020 03B70700 		ld	a4,0(a5)
  30              		.loc 1 36 18
  31 0024 03B50701 		ld	a0,16(a5)
  32 0028 E7000700 		jalr	a4
  33              	.LVL1:
  37:src/tcb.cpp   ****     //running->setFinished(true); //implicitno se zavrsava nit
  38:src/tcb.cpp   ****     thread_exit();
  34              		.loc 1 38 5 is_stmt 1
  35              		.loc 1 38 16 is_stmt 0
  36 002c 97000000 		call	_Z11thread_exitv@plt
  36      E7800000 
  37              	.LVL2:
  39:src/tcb.cpp   **** }
  38              		.loc 1 39 1
  39 0034 83308100 		ld	ra,8(sp)
  40              		.cfi_restore 1
  41 0038 03340100 		ld	s0,0(sp)
  42              		.cfi_restore 8
  43              		.cfi_def_cfa 2, 16
  44 003c 13010101 		addi	sp,sp,16
  45              		.cfi_def_cfa_offset 0
  46 0040 67800000 		jr	ra
  47              		.cfi_endproc
  48              	.LFE43:
  50              		.align	2
  51              		.globl	_ZN3TCB12createThreadEPFvPvES0_Pm
  53              	_ZN3TCB12createThreadEPFvPvES0_Pm:
  54              	.LFB40:
  14:src/tcb.cpp   ****     return new TCB(body, arg, stack, TIME_SLICE);
  55              		.loc 1 14 60 is_stmt 1
  56              		.cfi_startproc
  57              		.cfi_personality 0x9b,DW.ref.__gxx_personality_v0
  58              		.cfi_lsda 0x1b,.LLSDA40
  59              	.LVL3:
  60 0044 130101FD 		addi	sp,sp,-48
  61              		.cfi_def_cfa_offset 48
  62 0048 23341102 		sd	ra,40(sp)
  63 004c 23308102 		sd	s0,32(sp)
  64 0050 233C9100 		sd	s1,24(sp)
  65 0054 23382101 		sd	s2,16(sp)
  66 0058 23343101 		sd	s3,8(sp)
  67              		.cfi_offset 1, -8
  68              		.cfi_offset 8, -16
  69              		.cfi_offset 9, -24
  70              		.cfi_offset 18, -32
  71              		.cfi_offset 19, -40
  72 005c 13040103 		addi	s0,sp,48
  73              		.cfi_def_cfa 8, 0
  74 0060 13090500 		mv	s2,a0
GAS LISTING /tmp/ccuRLDGQ.s 			page 3


  75 0064 93890500 		mv	s3,a1
  15:src/tcb.cpp   **** }
  76              		.loc 1 15 5
  15:src/tcb.cpp   **** }
  77              		.loc 1 15 48 is_stmt 0
  78 0068 13058003 		li	a0,56
  79              	.LVL4:
  80              	.LEHB0:
  81 006c 97000000 		call	_Znwm@plt
  81      E7800000 
  82              	.LVL5:
  83              	.LEHE0:
  84 0074 93040500 		mv	s1,a0
  85              	.LVL6:
  86              	.LBB7:
  87              	.LBB8:
  88              		.file 2 "src/../h/tcb.hpp"
   1:src/../h/tcb.hpp **** //
   2:src/../h/tcb.hpp **** // Created by os on 8/15/22.
   3:src/../h/tcb.hpp **** //
   4:src/../h/tcb.hpp **** 
   5:src/../h/tcb.hpp **** #ifndef PROJECT_BASE_TCB_HPP
   6:src/../h/tcb.hpp **** #define PROJECT_BASE_TCB_HPP
   7:src/../h/tcb.hpp **** 
   8:src/../h/tcb.hpp **** #include "../lib/hw.h"
   9:src/../h/tcb.hpp **** #include "scheduler.hpp"
  10:src/../h/tcb.hpp **** #include "riscv.hpp"
  11:src/../h/tcb.hpp **** #include "print.hpp"
  12:src/../h/tcb.hpp **** 
  13:src/../h/tcb.hpp **** //#include "print.hpp"
  14:src/../h/tcb.hpp **** 
  15:src/../h/tcb.hpp **** //Thread Control Block
  16:src/../h/tcb.hpp **** class TCB
  17:src/../h/tcb.hpp **** {
  18:src/../h/tcb.hpp **** public:
  19:src/../h/tcb.hpp **** 
  20:src/../h/tcb.hpp ****     enum Status {
  21:src/../h/tcb.hpp ****         CREATED,
  22:src/../h/tcb.hpp ****         READY,
  23:src/../h/tcb.hpp ****         RUNNING,
  24:src/../h/tcb.hpp ****         FINISHED,
  25:src/../h/tcb.hpp ****         BLOCKED
  26:src/../h/tcb.hpp ****     };
  27:src/../h/tcb.hpp **** 
  28:src/../h/tcb.hpp ****     ~TCB() { delete[] stack; }
  29:src/../h/tcb.hpp **** 
  30:src/../h/tcb.hpp ****     bool isFinished() const { return status == FINISHED; }
  31:src/../h/tcb.hpp **** 
  32:src/../h/tcb.hpp ****     void setFinished(bool finished) { if (finished) status = FINISHED; }
  33:src/../h/tcb.hpp **** 
  34:src/../h/tcb.hpp ****     void* getArg() { return arg; }
  35:src/../h/tcb.hpp **** 
  36:src/../h/tcb.hpp ****     uint64 getTimeSlice() const { return timeSlice; }
  37:src/../h/tcb.hpp **** 
  38:src/../h/tcb.hpp ****     using Body = void (*)(void*);
  39:src/../h/tcb.hpp **** 
  40:src/../h/tcb.hpp ****     static TCB *createThread(Body body, void* arg, uint64* stack);
GAS LISTING /tmp/ccuRLDGQ.s 			page 4


  41:src/../h/tcb.hpp **** 
  42:src/../h/tcb.hpp ****     static void yield();
  43:src/../h/tcb.hpp **** 
  44:src/../h/tcb.hpp ****     void start();
  45:src/../h/tcb.hpp **** 
  46:src/../h/tcb.hpp ****     static TCB* running;
  47:src/../h/tcb.hpp **** 
  48:src/../h/tcb.hpp **** private:
  49:src/../h/tcb.hpp ****     // treba promeniti STACK_SIZE i TIME_SLICE da budu one const iz hw.h
  50:src/../h/tcb.hpp ****     TCB(Body body, void* arg, uint64* stack, uint64 timeSlice):
  51:src/../h/tcb.hpp ****         body(body),
  52:src/../h/tcb.hpp ****         stack( body != nullptr ? new uint64[DEFAULT_STACK_SIZE] : nullptr),
  53:src/../h/tcb.hpp ****         //stack( body != nullptr ? stack : nullptr),
  54:src/../h/tcb.hpp ****         //stack(stack),
  55:src/../h/tcb.hpp ****         arg(arg),
  56:src/../h/tcb.hpp ****         context({
  57:src/../h/tcb.hpp ****             (uint64) &threadWrapper,
  58:src/../h/tcb.hpp ****             //stack != nullptr ? (uint64) &stack[STACK_SIZE] : 0
  59:src/../h/tcb.hpp ****             this->stack != nullptr ? (uint64) &this->stack[DEFAULT_STACK_SIZE] : 0
  60:src/../h/tcb.hpp ****         }),
  61:src/../h/tcb.hpp ****         timeSlice(timeSlice),
  62:src/../h/tcb.hpp ****         status(CREATED)
  89              		.loc 2 62 23
  90 0078 23302501 		sd	s2,0(a0)
  52:src/../h/tcb.hpp ****         //stack( body != nullptr ? stack : nullptr),
  91              		.loc 2 52 32
  92 007c 630A0900 		beqz	s2,.L8
  52:src/../h/tcb.hpp ****         //stack( body != nullptr ? stack : nullptr),
  93              		.loc 2 52 63
  94 0080 37850000 		li	a0,32768
  95              	.LEHB1:
  96 0084 97000000 		call	_Znam@plt
  96      E7800000 
  97              	.LVL7:
  98              	.LEHE1:
  99 008c 6F008000 		j	.L4
 100              	.L8:
  52:src/../h/tcb.hpp ****         //stack( body != nullptr ? stack : nullptr),
 101              		.loc 2 52 32
 102 0090 13050000 		li	a0,0
 103              	.L4:
 104              		.loc 2 62 23
 105 0094 23B4A400 		sd	a0,8(s1)
 106 0098 23B83401 		sd	s3,16(s1)
 107 009c 97070000 		lla	a5,_ZN3TCB13threadWrapperEv
 107      93870700 
 108 00a4 23BCF400 		sd	a5,24(s1)
  59:src/../h/tcb.hpp ****         }),
 109              		.loc 2 59 36
 110 00a8 63000504 		beqz	a0,.L9
  59:src/../h/tcb.hpp ****         }),
 111              		.loc 2 59 47
 112 00ac B7870000 		li	a5,32768
 113 00b0 B307F500 		add	a5,a0,a5
 114              	.L5:
 115              		.loc 2 62 23
 116 00b4 23B0F402 		sd	a5,32(s1)
GAS LISTING /tmp/ccuRLDGQ.s 			page 5


 117 00b8 93072000 		li	a5,2
 118 00bc 23B4F402 		sd	a5,40(s1)
 119 00c0 23A80402 		sw	zero,48(s1)
  63:src/../h/tcb.hpp ****     {
  64:src/../h/tcb.hpp ****         //if (body != nullptr) { start(); }
  65:src/../h/tcb.hpp ****         if (body != nullptr) {}
 120              		.loc 2 65 9 is_stmt 1
 121 00c4 63060902 		beqz	s2,.L12
 122              	.LVL8:
 123              	.L3:
 124              	.LBE8:
 125              	.LBE7:
  16:src/tcb.cpp   **** 
 126              		.loc 1 16 1 is_stmt 0
 127 00c8 13850400 		mv	a0,s1
 128 00cc 83308102 		ld	ra,40(sp)
 129              		.cfi_remember_state
 130              		.cfi_restore 1
 131 00d0 03340102 		ld	s0,32(sp)
 132              		.cfi_restore 8
 133              		.cfi_def_cfa 2, 48
 134 00d4 83348101 		ld	s1,24(sp)
 135              		.cfi_restore 9
 136 00d8 03390101 		ld	s2,16(sp)
 137              		.cfi_restore 18
 138              	.LVL9:
 139 00dc 83398100 		ld	s3,8(sp)
 140              		.cfi_restore 19
 141              	.LVL10:
 142 00e0 13010103 		addi	sp,sp,48
 143              		.cfi_def_cfa_offset 0
 144 00e4 67800000 		jr	ra
 145              	.LVL11:
 146              	.L9:
 147              		.cfi_restore_state
 148              	.LBB10:
 149              	.LBB9:
  59:src/../h/tcb.hpp ****         }),
 150              		.loc 2 59 36
 151 00e8 93070000 		li	a5,0
 152 00ec 6FF09FFC 		j	.L5
 153              	.L12:
  66:src/../h/tcb.hpp ****         else { status = RUNNING; }
 154              		.loc 2 66 16 is_stmt 1
 155              		.loc 2 66 23 is_stmt 0
 156 00f0 23A8F402 		sw	a5,48(s1)
 157              	.LVL12:
 158              	.LBE9:
 159              	.LBE10:
  15:src/tcb.cpp   **** }
 160              		.loc 1 15 48
 161 00f4 6FF05FFD 		j	.L3
 162              	.LVL13:
 163              	.L10:
 164 00f8 13090500 		mv	s2,a0
 165              	.LVL14:
 166 00fc 13850400 		mv	a0,s1
GAS LISTING /tmp/ccuRLDGQ.s 			page 6


 167 0100 97000000 		call	_ZdlPv@plt
 167      E7800000 
 168              	.LVL15:
 169 0108 13050900 		mv	a0,s2
 170              	.LEHB2:
 171 010c 97000000 		call	_Unwind_Resume@plt
 171      E7800000 
 172              	.LVL16:
 173              	.LEHE2:
 174              		.cfi_endproc
 175              	.LFE40:
 176              		.globl	__gxx_personality_v0
 177              		.section	.gcc_except_table,"a",@progbits
 178              	.LLSDA40:
 179 0000 FF       		.byte	0xff
 180 0001 FF       		.byte	0xff
 181 0002 03       		.byte	0x3
 182 0003 27       		.byte	0x27
 183 0004 00000000 		.4byte	.LEHB0-.LFB40
 184 0008 00000000 		.4byte	.LEHE0-.LEHB0
 185 000c 00000000 		.4byte	0
 186 0010 00       		.byte	0
 187 0011 00000000 		.4byte	.LEHB1-.LFB40
 188 0015 00000000 		.4byte	.LEHE1-.LEHB1
 189 0019 00000000 		.4byte	.L10-.LFB40
 190 001d 00       		.byte	0
 191 001e 00000000 		.4byte	.LEHB2-.LFB40
 192 0022 00000000 		.4byte	.LEHE2-.LEHB2
 193 0026 00000000 		.4byte	0
 194 002a 00       		.byte	0
 195              		.text
 197              		.align	2
 198              		.globl	_ZN3TCB5yieldEv
 200              	_ZN3TCB5yieldEv:
 201              	.LFB41:
  19:src/tcb.cpp   ****     __asm__ volatile ("ecall");
 202              		.loc 1 19 1 is_stmt 1
 203              		.cfi_startproc
 204 0114 130101FF 		addi	sp,sp,-16
 205              		.cfi_def_cfa_offset 16
 206 0118 23348100 		sd	s0,8(sp)
 207              		.cfi_offset 8, -8
 208 011c 13040101 		addi	s0,sp,16
 209              		.cfi_def_cfa 8, 0
  20:src/tcb.cpp   **** };
 210              		.loc 1 20 5
  20:src/tcb.cpp   **** };
 211              		.loc 1 20 31 is_stmt 0
 212              	#APP
 213              	# 20 "src/tcb.cpp" 1
  21:src/tcb.cpp   **** 
 214              		ecall
 215              	# 0 "" 2
 216              		.loc 1 21 1
 217              	#NO_APP
 218 0124 03348100 		ld	s0,8(sp)
 219              		.cfi_restore 8
GAS LISTING /tmp/ccuRLDGQ.s 			page 7


 220              		.cfi_def_cfa 2, 16
 221 0128 13010101 		addi	sp,sp,16
 222              		.cfi_def_cfa_offset 0
 223 012c 67800000 		jr	ra
 224              		.cfi_endproc
 225              	.LFE41:
 227              		.align	2
 228              		.globl	_ZN3TCB8dispatchEv
 230              	_ZN3TCB8dispatchEv:
 231              	.LFB42:
  24:src/tcb.cpp   ****     TCB* old = running;
 232              		.loc 1 24 1 is_stmt 1
 233              		.cfi_startproc
 234 0130 130101FE 		addi	sp,sp,-32
 235              		.cfi_def_cfa_offset 32
 236 0134 233C1100 		sd	ra,24(sp)
 237 0138 23388100 		sd	s0,16(sp)
 238 013c 23349100 		sd	s1,8(sp)
 239              		.cfi_offset 1, -8
 240              		.cfi_offset 8, -16
 241              		.cfi_offset 9, -24
 242 0140 13040102 		addi	s0,sp,32
 243              		.cfi_def_cfa 8, 0
  25:src/tcb.cpp   ****     if (!old->isFinished() && old->status != BLOCKED) { old->status = READY; Scheduler::put(old); }
 244              		.loc 1 25 5
  25:src/tcb.cpp   ****     if (!old->isFinished() && old->status != BLOCKED) { old->status = READY; Scheduler::put(old); }
 245              		.loc 1 25 10 is_stmt 0
 246 0144 97040000 		ld	s1,.LANCHOR0
 246      83B40400 
 247              	.LVL17:
  26:src/tcb.cpp   ****     running = Scheduler::get();
 248              		.loc 1 26 5 is_stmt 1
 249              	.LBB11:
 250              	.LBB12:
  30:src/../h/tcb.hpp **** 
 251              		.loc 2 30 31
  30:src/../h/tcb.hpp **** 
 252              		.loc 2 30 38 is_stmt 0
 253 014c 83A70403 		lw	a5,48(s1)
 254              	.LVL18:
 255              	.LBE12:
 256              	.LBE11:
  26:src/tcb.cpp   ****     running = Scheduler::get();
 257              		.loc 1 26 28
 258 0150 13073000 		li	a4,3
 259 0154 6386E700 		beq	a5,a4,.L16
  26:src/tcb.cpp   ****     running = Scheduler::get();
 260              		.loc 1 26 28 discriminator 1
 261 0158 13074000 		li	a4,4
 262 015c 6390E704 		bne	a5,a4,.L18
 263              	.L16:
  27:src/tcb.cpp   ****     running->status = RUNNING;
 264              		.loc 1 27 5 is_stmt 1
  27:src/tcb.cpp   ****     running->status = RUNNING;
 265              		.loc 1 27 29 is_stmt 0
 266 0160 97000000 		call	_ZN9Scheduler3getEv@plt
 266      E7800000 
GAS LISTING /tmp/ccuRLDGQ.s 			page 8


 267              	.LVL19:
  27:src/tcb.cpp   ****     running->status = RUNNING;
 268              		.loc 1 27 13
 269 0168 97070000 		sd	a0,.LANCHOR0,a5
 269      23B0A700 
  28:src/tcb.cpp   **** 
 270              		.loc 1 28 5 is_stmt 1
  28:src/tcb.cpp   **** 
 271              		.loc 1 28 21 is_stmt 0
 272 0170 93072000 		li	a5,2
 273 0174 2328F502 		sw	a5,48(a0)
  30:src/tcb.cpp   **** }
 274              		.loc 1 30 5 is_stmt 1
  30:src/tcb.cpp   **** }
 275              		.loc 1 30 23 is_stmt 0
 276 0178 93058501 		addi	a1,a0,24
 277 017c 13858401 		addi	a0,s1,24
 278 0180 97000000 		call	_ZN3TCB13contextSwitchEPNS_7ContextES1_@plt
 278      E7800000 
 279              	.LVL20:
  31:src/tcb.cpp   **** 
 280              		.loc 1 31 1
 281 0188 83308101 		ld	ra,24(sp)
 282              		.cfi_remember_state
 283              		.cfi_restore 1
 284 018c 03340101 		ld	s0,16(sp)
 285              		.cfi_restore 8
 286              		.cfi_def_cfa 2, 32
 287 0190 83348100 		ld	s1,8(sp)
 288              		.cfi_restore 9
 289              	.LVL21:
 290 0194 13010102 		addi	sp,sp,32
 291              		.cfi_def_cfa_offset 0
 292 0198 67800000 		jr	ra
 293              	.LVL22:
 294              	.L18:
 295              		.cfi_restore_state
  26:src/tcb.cpp   ****     running = Scheduler::get();
 296              		.loc 1 26 57 is_stmt 1
  26:src/tcb.cpp   ****     running = Scheduler::get();
 297              		.loc 1 26 69 is_stmt 0
 298 019c 93071000 		li	a5,1
 299 01a0 23A8F402 		sw	a5,48(s1)
  26:src/tcb.cpp   ****     running = Scheduler::get();
 300              		.loc 1 26 78 is_stmt 1
  26:src/tcb.cpp   ****     running = Scheduler::get();
 301              		.loc 1 26 92 is_stmt 0
 302 01a4 13850400 		mv	a0,s1
 303 01a8 97000000 		call	_ZN9Scheduler3putEP3TCB@plt
 303      E7800000 
 304              	.LVL23:
 305 01b0 6FF01FFB 		j	.L16
 306              		.cfi_endproc
 307              	.LFE42:
 309              		.align	2
 310              		.globl	_ZN3TCB5startEv
 312              	_ZN3TCB5startEv:
GAS LISTING /tmp/ccuRLDGQ.s 			page 9


 313              	.LFB44:
  40:src/tcb.cpp   **** 
  41:src/tcb.cpp   **** void TCB::start()
  42:src/tcb.cpp   **** {
 314              		.loc 1 42 1 is_stmt 1
 315              		.cfi_startproc
 316              	.LVL24:
 317 01b4 130101FF 		addi	sp,sp,-16
 318              		.cfi_def_cfa_offset 16
 319 01b8 23341100 		sd	ra,8(sp)
 320 01bc 23308100 		sd	s0,0(sp)
 321              		.cfi_offset 1, -8
 322              		.cfi_offset 8, -16
 323 01c0 13040101 		addi	s0,sp,16
 324              		.cfi_def_cfa 8, 0
  43:src/tcb.cpp   ****     this->status = READY;
 325              		.loc 1 43 5
 326              		.loc 1 43 18 is_stmt 0
 327 01c4 93071000 		li	a5,1
 328 01c8 2328F502 		sw	a5,48(a0)
  44:src/tcb.cpp   ****     Scheduler::put(this);
 329              		.loc 1 44 5 is_stmt 1
 330              		.loc 1 44 19 is_stmt 0
 331 01cc 97000000 		call	_ZN9Scheduler3putEP3TCB@plt
 331      E7800000 
 332              	.LVL25:
  45:src/tcb.cpp   **** }
 333              		.loc 1 45 1
 334 01d4 83308100 		ld	ra,8(sp)
 335              		.cfi_restore 1
 336 01d8 03340100 		ld	s0,0(sp)
 337              		.cfi_restore 8
 338              		.cfi_def_cfa 2, 16
 339 01dc 13010101 		addi	sp,sp,16
 340              		.cfi_def_cfa_offset 0
 341 01e0 67800000 		jr	ra
 342              		.cfi_endproc
 343              	.LFE44:
 345              		.globl	_ZN3TCB16timeSliceCounterE
 346              		.globl	_ZN3TCB7runningE
 347              		.bss
 348              		.align	3
 349              		.set	.LANCHOR0,. + 0
 352              	_ZN3TCB7runningE:
 353 0000 00000000 		.zero	8
 353      00000000 
 356              	_ZN3TCB16timeSliceCounterE:
 357 0008 00000000 		.zero	8
 357      00000000 
 358              		.text
 359              	.Letext0:
 360              		.file 3 "src/../h/../lib/hw.h"
 361              		.file 4 "src/../h/scheduler.hpp"
 362              		.file 5 "src/../h/list.hpp"
 363              		.file 6 "src/../h/riscv.hpp"
 364              		.file 7 "src/../h/syscall_c.hpp"
 3104              		.align	3
GAS LISTING /tmp/ccuRLDGQ.s 			page 10


 3107              	DW.ref.__gxx_personality_v0:
 3108 0000 00000000 		.dword	__gxx_personality_v0
 3108      00000000 
 3109              		.ident	"GCC: (Ubuntu 9.4.0-1ubuntu1~20.04) 9.4.0"
 3110              		.section	.note.GNU-stack,"",@progbits
GAS LISTING /tmp/ccuRLDGQ.s 			page 11


DEFINED SYMBOLS
                            *ABS*:0000000000000000 tcb.cpp
     /tmp/ccuRLDGQ.s:9      .text:0000000000000000 _ZN3TCB13threadWrapperEv
     /tmp/ccuRLDGQ.s:13     .text:0000000000000000 .L0 
     /tmp/ccuRLDGQ.s:14     .text:0000000000000000 .L0 
     /tmp/ccuRLDGQ.s:15     .text:0000000000000004 .L0 
     /tmp/ccuRLDGQ.s:18     .text:000000000000000c .L0 
     /tmp/ccuRLDGQ.s:19     .text:000000000000000c .L0 
     /tmp/ccuRLDGQ.s:21     .text:0000000000000010 .L0 
     /tmp/ccuRLDGQ.s:23     .text:0000000000000010 .L0 
     /tmp/ccuRLDGQ.s:24     .text:0000000000000010 .L0 
     /tmp/ccuRLDGQ.s:27     .text:0000000000000018 .L0 
     /tmp/ccuRLDGQ.s:28     .text:0000000000000018 .L0 
     /tmp/ccuRLDGQ.s:31     .text:0000000000000024 .L0 
     /tmp/ccuRLDGQ.s:35     .text:000000000000002c .L0 
     /tmp/ccuRLDGQ.s:36     .text:000000000000002c .L0 
     /tmp/ccuRLDGQ.s:39     .text:0000000000000034 .L0 
     /tmp/ccuRLDGQ.s:40     .text:0000000000000038 .L0 
     /tmp/ccuRLDGQ.s:42     .text:000000000000003c .L0 
     /tmp/ccuRLDGQ.s:43     .text:000000000000003c .L0 
     /tmp/ccuRLDGQ.s:45     .text:0000000000000040 .L0 
     /tmp/ccuRLDGQ.s:47     .text:0000000000000044 .L0 
     /tmp/ccuRLDGQ.s:53     .text:0000000000000044 _ZN3TCB12createThreadEPFvPvES0_Pm
     /tmp/ccuRLDGQ.s:56     .text:0000000000000044 .L0 
     /tmp/ccuRLDGQ.s:3107   .data.rel.local.DW.ref.__gxx_personality_v0:0000000000000000 DW.ref.__gxx_personality_v0
     /tmp/ccuRLDGQ.s:60     .text:0000000000000044 .L0 
     /tmp/ccuRLDGQ.s:61     .text:0000000000000048 .L0 
     /tmp/ccuRLDGQ.s:67     .text:000000000000005c .L0 
     /tmp/ccuRLDGQ.s:68     .text:000000000000005c .L0 
     /tmp/ccuRLDGQ.s:69     .text:000000000000005c .L0 
     /tmp/ccuRLDGQ.s:70     .text:000000000000005c .L0 
     /tmp/ccuRLDGQ.s:71     .text:000000000000005c .L0 
     /tmp/ccuRLDGQ.s:73     .text:0000000000000060 .L0 
     /tmp/ccuRLDGQ.s:77     .text:0000000000000068 .L0 
     /tmp/ccuRLDGQ.s:78     .text:0000000000000068 .L0 
     /tmp/ccuRLDGQ.s:90     .text:0000000000000078 .L0 
     /tmp/ccuRLDGQ.s:92     .text:000000000000007c .L0 
     /tmp/ccuRLDGQ.s:94     .text:0000000000000080 .L0 
     /tmp/ccuRLDGQ.s:102    .text:0000000000000090 .L0 
     /tmp/ccuRLDGQ.s:105    .text:0000000000000094 .L0 
     /tmp/ccuRLDGQ.s:110    .text:00000000000000a8 .L0 
     /tmp/ccuRLDGQ.s:112    .text:00000000000000ac .L0 
     /tmp/ccuRLDGQ.s:116    .text:00000000000000b4 .L0 
     /tmp/ccuRLDGQ.s:121    .text:00000000000000c4 .L0 
     /tmp/ccuRLDGQ.s:127    .text:00000000000000c8 .L0 
     /tmp/ccuRLDGQ.s:129    .text:00000000000000d0 .L0 
     /tmp/ccuRLDGQ.s:130    .text:00000000000000d0 .L0 
     /tmp/ccuRLDGQ.s:132    .text:00000000000000d4 .L0 
     /tmp/ccuRLDGQ.s:133    .text:00000000000000d4 .L0 
     /tmp/ccuRLDGQ.s:135    .text:00000000000000d8 .L0 
     /tmp/ccuRLDGQ.s:137    .text:00000000000000dc .L0 
     /tmp/ccuRLDGQ.s:140    .text:00000000000000e0 .L0 
     /tmp/ccuRLDGQ.s:143    .text:00000000000000e4 .L0 
     /tmp/ccuRLDGQ.s:147    .text:00000000000000e8 .L0 
     /tmp/ccuRLDGQ.s:151    .text:00000000000000e8 .L0 
     /tmp/ccuRLDGQ.s:155    .text:00000000000000f0 .L0 
     /tmp/ccuRLDGQ.s:156    .text:00000000000000f0 .L0 
GAS LISTING /tmp/ccuRLDGQ.s 			page 12


     /tmp/ccuRLDGQ.s:161    .text:00000000000000f4 .L0 
     /tmp/ccuRLDGQ.s:174    .text:0000000000000114 .L0 
     /tmp/ccuRLDGQ.s:200    .text:0000000000000114 _ZN3TCB5yieldEv
     /tmp/ccuRLDGQ.s:203    .text:0000000000000114 .L0 
     /tmp/ccuRLDGQ.s:204    .text:0000000000000114 .L0 
     /tmp/ccuRLDGQ.s:205    .text:0000000000000118 .L0 
     /tmp/ccuRLDGQ.s:207    .text:000000000000011c .L0 
     /tmp/ccuRLDGQ.s:209    .text:0000000000000120 .L0 
     /tmp/ccuRLDGQ.s:211    .text:0000000000000120 .L0 
         src/tcb.cpp:20     .text:0000000000000120 .L0 
     /tmp/ccuRLDGQ.s:218    .text:0000000000000124 .L0 
     /tmp/ccuRLDGQ.s:219    .text:0000000000000128 .L0 
     /tmp/ccuRLDGQ.s:220    .text:0000000000000128 .L0 
     /tmp/ccuRLDGQ.s:222    .text:000000000000012c .L0 
     /tmp/ccuRLDGQ.s:224    .text:0000000000000130 .L0 
     /tmp/ccuRLDGQ.s:230    .text:0000000000000130 _ZN3TCB8dispatchEv
     /tmp/ccuRLDGQ.s:233    .text:0000000000000130 .L0 
     /tmp/ccuRLDGQ.s:234    .text:0000000000000130 .L0 
     /tmp/ccuRLDGQ.s:235    .text:0000000000000134 .L0 
     /tmp/ccuRLDGQ.s:239    .text:0000000000000140 .L0 
     /tmp/ccuRLDGQ.s:240    .text:0000000000000140 .L0 
     /tmp/ccuRLDGQ.s:241    .text:0000000000000140 .L0 
     /tmp/ccuRLDGQ.s:243    .text:0000000000000144 .L0 
     /tmp/ccuRLDGQ.s:245    .text:0000000000000144 .L0 
     /tmp/ccuRLDGQ.s:246    .text:0000000000000144 .L0 
     /tmp/ccuRLDGQ.s:251    .text:000000000000014c .L0 
     /tmp/ccuRLDGQ.s:252    .text:000000000000014c .L0 
     /tmp/ccuRLDGQ.s:253    .text:000000000000014c .L0 
     /tmp/ccuRLDGQ.s:258    .text:0000000000000150 .L0 
     /tmp/ccuRLDGQ.s:261    .text:0000000000000158 .L0 
     /tmp/ccuRLDGQ.s:265    .text:0000000000000160 .L0 
     /tmp/ccuRLDGQ.s:266    .text:0000000000000160 .L0 
     /tmp/ccuRLDGQ.s:269    .text:0000000000000168 .L0 
     /tmp/ccuRLDGQ.s:271    .text:0000000000000170 .L0 
     /tmp/ccuRLDGQ.s:272    .text:0000000000000170 .L0 
     /tmp/ccuRLDGQ.s:275    .text:0000000000000178 .L0 
     /tmp/ccuRLDGQ.s:276    .text:0000000000000178 .L0 
     /tmp/ccuRLDGQ.s:281    .text:0000000000000188 .L0 
     /tmp/ccuRLDGQ.s:282    .text:000000000000018c .L0 
     /tmp/ccuRLDGQ.s:283    .text:000000000000018c .L0 
     /tmp/ccuRLDGQ.s:285    .text:0000000000000190 .L0 
     /tmp/ccuRLDGQ.s:286    .text:0000000000000190 .L0 
     /tmp/ccuRLDGQ.s:288    .text:0000000000000194 .L0 
     /tmp/ccuRLDGQ.s:291    .text:0000000000000198 .L0 
     /tmp/ccuRLDGQ.s:295    .text:000000000000019c .L0 
     /tmp/ccuRLDGQ.s:297    .text:000000000000019c .L0 
     /tmp/ccuRLDGQ.s:298    .text:000000000000019c .L0 
     /tmp/ccuRLDGQ.s:301    .text:00000000000001a4 .L0 
     /tmp/ccuRLDGQ.s:302    .text:00000000000001a4 .L0 
     /tmp/ccuRLDGQ.s:306    .text:00000000000001b4 .L0 
     /tmp/ccuRLDGQ.s:312    .text:00000000000001b4 _ZN3TCB5startEv
     /tmp/ccuRLDGQ.s:315    .text:00000000000001b4 .L0 
     /tmp/ccuRLDGQ.s:317    .text:00000000000001b4 .L0 
     /tmp/ccuRLDGQ.s:318    .text:00000000000001b8 .L0 
     /tmp/ccuRLDGQ.s:321    .text:00000000000001c0 .L0 
     /tmp/ccuRLDGQ.s:322    .text:00000000000001c0 .L0 
     /tmp/ccuRLDGQ.s:324    .text:00000000000001c4 .L0 
GAS LISTING /tmp/ccuRLDGQ.s 			page 13


     /tmp/ccuRLDGQ.s:326    .text:00000000000001c4 .L0 
     /tmp/ccuRLDGQ.s:327    .text:00000000000001c4 .L0 
     /tmp/ccuRLDGQ.s:330    .text:00000000000001cc .L0 
     /tmp/ccuRLDGQ.s:331    .text:00000000000001cc .L0 
     /tmp/ccuRLDGQ.s:334    .text:00000000000001d4 .L0 
     /tmp/ccuRLDGQ.s:335    .text:00000000000001d8 .L0 
     /tmp/ccuRLDGQ.s:337    .text:00000000000001dc .L0 
     /tmp/ccuRLDGQ.s:338    .text:00000000000001dc .L0 
     /tmp/ccuRLDGQ.s:340    .text:00000000000001e0 .L0 
     /tmp/ccuRLDGQ.s:342    .text:00000000000001e4 .L0 
     /tmp/ccuRLDGQ.s:356    .bss:0000000000000008 _ZN3TCB16timeSliceCounterE
     /tmp/ccuRLDGQ.s:352    .bss:0000000000000000 _ZN3TCB7runningE
     /tmp/ccuRLDGQ.s:349    .bss:0000000000000000 .LANCHOR0
     /tmp/ccuRLDGQ.s:365    .text:00000000000001e4 .L0 
     /tmp/ccuRLDGQ.s:28     .text:0000000000000018 .L0 
     /tmp/ccuRLDGQ.s:107    .text:000000000000009c .L0 
     /tmp/ccuRLDGQ.s:246    .text:0000000000000144 .L0 
     /tmp/ccuRLDGQ.s:269    .text:0000000000000168 .L0 
     /tmp/ccuRLDGQ.s:100    .text:0000000000000090 .L8
     /tmp/ccuRLDGQ.s:103    .text:0000000000000094 .L4
     /tmp/ccuRLDGQ.s:146    .text:00000000000000e8 .L9
     /tmp/ccuRLDGQ.s:153    .text:00000000000000f0 .L12
     /tmp/ccuRLDGQ.s:114    .text:00000000000000b4 .L5
     /tmp/ccuRLDGQ.s:123    .text:00000000000000c8 .L3
     /tmp/ccuRLDGQ.s:263    .text:0000000000000160 .L16
     /tmp/ccuRLDGQ.s:294    .text:000000000000019c .L18
     /tmp/ccuRLDGQ.s:80     .text:000000000000006c .LEHB0
     /tmp/ccuRLDGQ.s:54     .text:0000000000000044 .LFB40
     /tmp/ccuRLDGQ.s:83     .text:0000000000000074 .LEHE0
     /tmp/ccuRLDGQ.s:95     .text:0000000000000084 .LEHB1
     /tmp/ccuRLDGQ.s:98     .text:000000000000008c .LEHE1
     /tmp/ccuRLDGQ.s:163    .text:00000000000000f8 .L10
     /tmp/ccuRLDGQ.s:170    .text:000000000000010c .LEHB2
     /tmp/ccuRLDGQ.s:173    .text:0000000000000114 .LEHE2
     /tmp/ccuRLDGQ.s:1504   .debug_abbrev:0000000000000000 .Ldebug_abbrev0
     /tmp/ccuRLDGQ.s:3055   .debug_str:00000000000006cd .LASF126
     /tmp/ccuRLDGQ.s:2957   .debug_str:0000000000000457 .LASF127
     /tmp/ccuRLDGQ.s:2901   .debug_str:00000000000002ac .LASF128
     /tmp/ccuRLDGQ.s:5      .text:0000000000000000 .Ltext0
     /tmp/ccuRLDGQ.s:359    .text:00000000000001e4 .Letext0
     /tmp/ccuRLDGQ.s:2813   .debug_line:0000000000000000 .Ldebug_line0
     /tmp/ccuRLDGQ.s:2977   .debug_str:00000000000004d0 .LASF0
     /tmp/ccuRLDGQ.s:2993   .debug_str:0000000000000514 .LASF1
     /tmp/ccuRLDGQ.s:2963   .debug_str:000000000000047a .LASF2
     /tmp/ccuRLDGQ.s:2929   .debug_str:0000000000000393 .LASF4
     /tmp/ccuRLDGQ.s:3029   .debug_str:000000000000061f .LASF3
     /tmp/ccuRLDGQ.s:2847   .debug_str:0000000000000105 .LASF5
     /tmp/ccuRLDGQ.s:2997   .debug_str:000000000000052e .LASF6
     /tmp/ccuRLDGQ.s:2975   .debug_str:00000000000004bd .LASF7
     /tmp/ccuRLDGQ.s:3069   .debug_str:00000000000007e0 .LASF8
     /tmp/ccuRLDGQ.s:2911   .debug_str:00000000000002f3 .LASF9
     /tmp/ccuRLDGQ.s:3011   .debug_str:0000000000000591 .LASF10
     /tmp/ccuRLDGQ.s:3059   .debug_str:000000000000079d .LASF11
     /tmp/ccuRLDGQ.s:2851   .debug_str:0000000000000117 .LASF12
     /tmp/ccuRLDGQ.s:2823   .debug_str:0000000000000051 .LASF13
     /tmp/ccuRLDGQ.s:2863   .debug_str:0000000000000183 .LASF14
     /tmp/ccuRLDGQ.s:3021   .debug_str:00000000000005db .LASF15
GAS LISTING /tmp/ccuRLDGQ.s 			page 14


     /tmp/ccuRLDGQ.s:2875   .debug_str:00000000000001df .LASF16
     /tmp/ccuRLDGQ.s:3007   .debug_str:0000000000000581 .LASF17
     /tmp/ccuRLDGQ.s:3073   .debug_str:0000000000000808 .LASF61
     /tmp/ccuRLDGQ.s:2923   .debug_str:0000000000000352 .LASF129
     /tmp/ccuRLDGQ.s:2859   .debug_str:0000000000000161 .LASF130
     /tmp/ccuRLDGQ.s:2953   .debug_str:0000000000000440 .LASF18
     /tmp/ccuRLDGQ.s:3061   .debug_str:00000000000007ac .LASF131
     /tmp/ccuRLDGQ.s:2879   .debug_str:0000000000000209 .LASF19
     /tmp/ccuRLDGQ.s:2967   .debug_str:0000000000000494 .LASF20
     /tmp/ccuRLDGQ.s:2927   .debug_str:000000000000038e .LASF21
     /tmp/ccuRLDGQ.s:3047   .debug_str:0000000000000694 .LASF23
     /tmp/ccuRLDGQ.s:3019   .debug_str:00000000000005c4 .LASF28
     /tmp/ccuRLDGQ.s:2973   .debug_str:00000000000004b3 .LASF132
     /tmp/ccuRLDGQ.s:2915   .debug_str:0000000000000308 .LASF133
     /tmp/ccuRLDGQ.s:3053   .debug_str:00000000000006c4 .LASF22
     /tmp/ccuRLDGQ.s:2883   .debug_str:000000000000022a .LASF24
     /tmp/ccuRLDGQ.s:2909   .debug_str:00000000000002eb .LASF25
     /tmp/ccuRLDGQ.s:2881   .debug_str:000000000000020e .LASF26
     /tmp/ccuRLDGQ.s:3057   .debug_str:0000000000000791 .LASF27
     /tmp/ccuRLDGQ.s:2819   .debug_str:0000000000000019 .LASF29
     /tmp/ccuRLDGQ.s:2857   .debug_str:0000000000000157 .LASF30
     /tmp/ccuRLDGQ.s:2941   .debug_str:00000000000003c3 .LASF31
     /tmp/ccuRLDGQ.s:2985   .debug_str:00000000000004f3 .LASF32
     /tmp/ccuRLDGQ.s:2837   .debug_str:000000000000009f .LASF33
     /tmp/ccuRLDGQ.s:2945   .debug_str:00000000000003ef .LASF34
     /tmp/ccuRLDGQ.s:3081   .debug_str:0000000000000848 .LASF35
     /tmp/ccuRLDGQ.s:2913   .debug_str:0000000000000301 .LASF134
     /tmp/ccuRLDGQ.s:3075   .debug_str:000000000000081c .LASF36
     /tmp/ccuRLDGQ.s:3009   .debug_str:000000000000058b .LASF37
     /tmp/ccuRLDGQ.s:3003   .debug_str:0000000000000563 .LASF38
     /tmp/ccuRLDGQ.s:3039   .debug_str:0000000000000663 .LASF39
     /tmp/ccuRLDGQ.s:2931   .debug_str:000000000000039a .LASF40
     /tmp/ccuRLDGQ.s:2831   .debug_str:0000000000000085 .LASF135
     /tmp/ccuRLDGQ.s:2885   .debug_str:0000000000000247 .LASF41
     /tmp/ccuRLDGQ.s:3015   .debug_str:00000000000005b3 .LASF42
     /tmp/ccuRLDGQ.s:2999   .debug_str:0000000000000541 .LASF43
     /tmp/ccuRLDGQ.s:2867   .debug_str:000000000000019f .LASF44
     /tmp/ccuRLDGQ.s:2965   .debug_str:0000000000000488 .LASF45
     /tmp/ccuRLDGQ.s:3095   .debug_str:00000000000008d6 .LASF46
     /tmp/ccuRLDGQ.s:2935   .debug_str:00000000000003a7 .LASF47
     /tmp/ccuRLDGQ.s:2943   .debug_str:00000000000003de .LASF48
     /tmp/ccuRLDGQ.s:2955   .debug_str:000000000000044a .LASF49
     /tmp/ccuRLDGQ.s:2845   .debug_str:00000000000000ec .LASF50
     /tmp/ccuRLDGQ.s:2939   .debug_str:00000000000003b6 .LASF51
     /tmp/ccuRLDGQ.s:3085   .debug_str:0000000000000875 .LASF52
     /tmp/ccuRLDGQ.s:3017   .debug_str:00000000000005bf .LASF136
     /tmp/ccuRLDGQ.s:3023   .debug_str:00000000000005f1 .LASF70
     /tmp/ccuRLDGQ.s:2971   .debug_str:00000000000004a3 .LASF72
     /tmp/ccuRLDGQ.s:2991   .debug_str:000000000000050e .LASF53
     /tmp/ccuRLDGQ.s:2961   .debug_str:000000000000046a .LASF54
     /tmp/ccuRLDGQ.s:2891   .debug_str:0000000000000270 .LASF137
     /tmp/ccuRLDGQ.s:3001   .debug_str:000000000000054c .LASF138
     /tmp/ccuRLDGQ.s:2933   .debug_str:00000000000003a2 .LASF55
     /tmp/ccuRLDGQ.s:2983   .debug_str:00000000000004ed .LASF56
     /tmp/ccuRLDGQ.s:2937   .debug_str:00000000000003ae .LASF57
     /tmp/ccuRLDGQ.s:2987   .debug_str:00000000000004fe .LASF58
     /tmp/ccuRLDGQ.s:2995   .debug_str:0000000000000527 .LASF59
GAS LISTING /tmp/ccuRLDGQ.s 			page 15


     /tmp/ccuRLDGQ.s:2869   .debug_str:00000000000001b6 .LASF60
     /tmp/ccuRLDGQ.s:2925   .debug_str:0000000000000366 .LASF139
     /tmp/ccuRLDGQ.s:2981   .debug_str:00000000000004e4 .LASF63
     /tmp/ccuRLDGQ.s:2897   .debug_str:0000000000000294 .LASF65
     /tmp/ccuRLDGQ.s:3031   .debug_str:0000000000000631 .LASF62
     /tmp/ccuRLDGQ.s:2947   .debug_str:00000000000003f8 .LASF64
     /tmp/ccuRLDGQ.s:2917   .debug_str:000000000000031f .LASF66
     /tmp/ccuRLDGQ.s:2849   .debug_str:000000000000010c .LASF67
     /tmp/ccuRLDGQ.s:2919   .debug_str:0000000000000338 .LASF68
     /tmp/ccuRLDGQ.s:2989   .debug_str:0000000000000508 .LASF69
     /tmp/ccuRLDGQ.s:3035   .debug_str:0000000000000649 .LASF71
     /tmp/ccuRLDGQ.s:3087   .debug_str:0000000000000897 .LASF73
     /tmp/ccuRLDGQ.s:2843   .debug_str:00000000000000de .LASF74
     /tmp/ccuRLDGQ.s:2889   .debug_str:0000000000000255 .LASF75
     /tmp/ccuRLDGQ.s:3045   .debug_str:0000000000000687 .LASF76
     /tmp/ccuRLDGQ.s:2821   .debug_str:0000000000000037 .LASF77
     /tmp/ccuRLDGQ.s:2825   .debug_str:0000000000000061 .LASF78
     /tmp/ccuRLDGQ.s:3043   .debug_str:0000000000000672 .LASF81
     /tmp/ccuRLDGQ.s:2887   .debug_str:000000000000024c .LASF79
     /tmp/ccuRLDGQ.s:2827   .debug_str:000000000000006a .LASF84
     /tmp/ccuRLDGQ.s:3033   .debug_str:0000000000000642 .LASF80
     /tmp/ccuRLDGQ.s:3013   .debug_str:00000000000005a0 .LASF82
     /tmp/ccuRLDGQ.s:3063   .debug_str:00000000000007b1 .LASF83
     /tmp/ccuRLDGQ.s:3065   .debug_str:00000000000007b8 .LASF85
     /tmp/ccuRLDGQ.s:2905   .debug_str:00000000000002dd .LASF86
     /tmp/ccuRLDGQ.s:2877   .debug_str:00000000000001f5 .LASF87
     /tmp/ccuRLDGQ.s:2817   .debug_str:0000000000000011 .LASF88
     /tmp/ccuRLDGQ.s:3089   .debug_str:00000000000008af .LASF89
     /tmp/ccuRLDGQ.s:2893   .debug_str:0000000000000278 .LASF90
     /tmp/ccuRLDGQ.s:2853   .debug_str:0000000000000127 .LASF91
     /tmp/ccuRLDGQ.s:3093   .debug_str:00000000000008ce .LASF92
     /tmp/ccuRLDGQ.s:2895   .debug_str:0000000000000280 .LASF93
     /tmp/ccuRLDGQ.s:2979   .debug_str:00000000000004dd .LASF94
     /tmp/ccuRLDGQ.s:3083   .debug_str:0000000000000862 .LASF95
     /tmp/ccuRLDGQ.s:2839   .debug_str:00000000000000bc .LASF96
     /tmp/ccuRLDGQ.s:2903   .debug_str:00000000000002ca .LASF97
     /tmp/ccuRLDGQ.s:2907   .debug_str:00000000000002e5 .LASF98
     /tmp/ccuRLDGQ.s:3051   .debug_str:00000000000006b2 .LASF99
     /tmp/ccuRLDGQ.s:2835   .debug_str:0000000000000099 .LASF100
     /tmp/ccuRLDGQ.s:3099   .debug_str:00000000000008fe .LASF101
     /tmp/ccuRLDGQ.s:3091   .debug_str:00000000000008c3 .LASF102
     /tmp/ccuRLDGQ.s:3027   .debug_str:0000000000000607 .LASF103
     /tmp/ccuRLDGQ.s:3049   .debug_str:00000000000006a7 .LASF104
     /tmp/ccuRLDGQ.s:2951   .debug_str:0000000000000428 .LASF105
     /tmp/ccuRLDGQ.s:2861   .debug_str:0000000000000179 .LASF106
     /tmp/ccuRLDGQ.s:3005   .debug_str:000000000000056b .LASF107
     /tmp/ccuRLDGQ.s:2969   .debug_str:0000000000000499 .LASF108
     /tmp/ccuRLDGQ.s:2871   .debug_str:00000000000001c4 .LASF109
     /tmp/ccuRLDGQ.s:3037   .debug_str:0000000000000654 .LASF110
     /tmp/ccuRLDGQ.s:2855   .debug_str:000000000000013b .LASF111
     /tmp/ccuRLDGQ.s:3067   .debug_str:00000000000007cb .LASF112
     /tmp/ccuRLDGQ.s:2949   .debug_str:0000000000000406 .LASF113
     /tmp/ccuRLDGQ.s:2899   .debug_str:00000000000002a7 .LASF114
     /tmp/ccuRLDGQ.s:3097   .debug_str:00000000000008ed .LASF115
     /tmp/ccuRLDGQ.s:2841   .debug_str:00000000000000c3 .LASF116
     /tmp/ccuRLDGQ.s:313    .text:00000000000001b4 .LFB44
     /tmp/ccuRLDGQ.s:343    .text:00000000000001e4 .LFE44
GAS LISTING /tmp/ccuRLDGQ.s 			page 16


     /tmp/ccuRLDGQ.s:2873   .debug_str:00000000000001da .LASF117
     /tmp/ccuRLDGQ.s:2603   .debug_loc:0000000000000000 .LLST10
     /tmp/ccuRLDGQ.s:332    .text:00000000000001d4 .LVL25
     /tmp/ccuRLDGQ.s:10     .text:0000000000000000 .LFB43
     /tmp/ccuRLDGQ.s:48     .text:0000000000000044 .LFE43
     /tmp/ccuRLDGQ.s:25     .text:0000000000000018 .LVL0
     /tmp/ccuRLDGQ.s:37     .text:0000000000000034 .LVL2
     /tmp/ccuRLDGQ.s:231    .text:0000000000000130 .LFB42
     /tmp/ccuRLDGQ.s:307    .text:00000000000001b4 .LFE42
     /tmp/ccuRLDGQ.s:2617   .debug_loc:0000000000000039 .LLST8
     /tmp/ccuRLDGQ.s:249    .text:000000000000014c .LBB11
     /tmp/ccuRLDGQ.s:256    .text:0000000000000150 .LBE11
     /tmp/ccuRLDGQ.s:2628   .debug_loc:000000000000006f .LLST9
     /tmp/ccuRLDGQ.s:267    .text:0000000000000168 .LVL19
     /tmp/ccuRLDGQ.s:279    .text:0000000000000188 .LVL20
     /tmp/ccuRLDGQ.s:304    .text:00000000000001b0 .LVL23
     /tmp/ccuRLDGQ.s:201    .text:0000000000000114 .LFB41
     /tmp/ccuRLDGQ.s:225    .text:0000000000000130 .LFE41
     /tmp/ccuRLDGQ.s:175    .text:0000000000000114 .LFE40
     /tmp/ccuRLDGQ.s:2635   .debug_loc:0000000000000092 .LLST0
     /tmp/ccuRLDGQ.s:2664   .debug_loc:0000000000000107 .LLST1
     /tmp/ccuRLDGQ.s:2684   .debug_loc:0000000000000164 .LLST2
     /tmp/ccuRLDGQ.s:86     .text:0000000000000078 .LBB7
     /tmp/ccuRLDGQ.s:2805   .debug_ranges:0000000000000000 .Ldebug_ranges0
     /tmp/ccuRLDGQ.s:2698   .debug_loc:000000000000019d .LLST3
     /tmp/ccuRLDGQ.s:2716   .debug_loc:00000000000001e9 .LLST4
     /tmp/ccuRLDGQ.s:2740   .debug_loc:000000000000023b .LLST5
     /tmp/ccuRLDGQ.s:2755   .debug_loc:0000000000000284 .LLST6
     /tmp/ccuRLDGQ.s:2777   .debug_loc:00000000000002e3 .LLST7
     /tmp/ccuRLDGQ.s:97     .text:000000000000008c .LVL7
     /tmp/ccuRLDGQ.s:82     .text:0000000000000074 .LVL5
     /tmp/ccuRLDGQ.s:168    .text:0000000000000108 .LVL15
     /tmp/ccuRLDGQ.s:172    .text:0000000000000114 .LVL16
     /tmp/ccuRLDGQ.s:3077   .debug_str:0000000000000824 .LASF140
     /tmp/ccuRLDGQ.s:2815   .debug_str:0000000000000000 .LASF141
     /tmp/ccuRLDGQ.s:2833   .debug_str:000000000000008d .LASF142
     /tmp/ccuRLDGQ.s:3041   .debug_str:000000000000066c .LASF118
     /tmp/ccuRLDGQ.s:3025   .debug_str:00000000000005f7 .LASF120
     /tmp/ccuRLDGQ.s:2829   .debug_str:000000000000007f .LASF119
     /tmp/ccuRLDGQ.s:3079   .debug_str:000000000000083b .LASF121
     /tmp/ccuRLDGQ.s:2959   .debug_str:0000000000000463 .LASF122
     /tmp/ccuRLDGQ.s:2865   .debug_str:000000000000018f .LASF123
     /tmp/ccuRLDGQ.s:2921   .debug_str:0000000000000343 .LASF124
     /tmp/ccuRLDGQ.s:3071   .debug_str:00000000000007f0 .LASF125
     /tmp/ccuRLDGQ.s:316    .text:00000000000001b4 .LVL24
     /tmp/ccuRLDGQ.s:247    .text:000000000000014c .LVL17
     /tmp/ccuRLDGQ.s:289    .text:0000000000000194 .LVL21
     /tmp/ccuRLDGQ.s:293    .text:000000000000019c .LVL22
     /tmp/ccuRLDGQ.s:254    .text:0000000000000150 .LVL18
     /tmp/ccuRLDGQ.s:59     .text:0000000000000044 .LVL3
     /tmp/ccuRLDGQ.s:79     .text:000000000000006c .LVL4
     /tmp/ccuRLDGQ.s:138    .text:00000000000000dc .LVL9
     /tmp/ccuRLDGQ.s:145    .text:00000000000000e8 .LVL11
     /tmp/ccuRLDGQ.s:165    .text:00000000000000fc .LVL14
     /tmp/ccuRLDGQ.s:141    .text:00000000000000e0 .LVL10
     /tmp/ccuRLDGQ.s:85     .text:0000000000000078 .LVL6
     /tmp/ccuRLDGQ.s:122    .text:00000000000000c8 .LVL8
GAS LISTING /tmp/ccuRLDGQ.s 			page 17


     /tmp/ccuRLDGQ.s:157    .text:00000000000000f4 .LVL12
     /tmp/ccuRLDGQ.s:162    .text:00000000000000f8 .LVL13
     /tmp/ccuRLDGQ.s:366    .debug_info:0000000000000000 .Ldebug_info0
     /tmp/ccuRLDGQ.s:125    .text:00000000000000c8 .LBE7
     /tmp/ccuRLDGQ.s:148    .text:00000000000000e8 .LBB10
     /tmp/ccuRLDGQ.s:159    .text:00000000000000f4 .LBE10
     /tmp/ccuRLDGQ.s:178    .gcc_except_table:0000000000000000 .LLSDA40

UNDEFINED SYMBOLS
_ZN5Riscv10popSppSpieEv
_Z11thread_exitv
_Znwm
_Znam
_ZdlPv
_Unwind_Resume
__gxx_personality_v0
_ZN9Scheduler3getEv
_ZN3TCB13contextSwitchEPNS_7ContextES1_
_ZN9Scheduler3putEP3TCB
